(dp0
(I15
I20
I2
tp1
(lp2
I17
as(I18
I5
I6
tp3
(lp4
I19
as(I8
I6
I19
tp5
(lp6
I3
aI6
as(I7
I1
I3
tp7
(lp8
I1
as(I3
I23
I10
tp9
(lp10
I4
aI23
as(I14
I4
I3
tp11
(lp12
I9
as(I25
I17
I22
tp13
(lp14
I18
as(I23
I3
I1
tp15
(lp16
I3
as(I9
I5
I10
tp17
(lp18
I15
as(I25
I14
I1
tp19
(lp20
I14
as(I9
I24
I17
tp21
(lp22
I24
as(I20
I15
I24
tp23
(lp24
I12
aI15
as(I1
I7
I2
tp25
(lp26
I11
aI25
as(I22
I8
I22
tp27
(lp28
I14
aI16
aI18
aI25
as(I13
I19
I14
tp29
(lp30
I8
as(I10
I21
I3
tp31
(lp32
I19
as(I24
I1
I24
tp33
(lp34
I5
aI12
aI15
aI17
as(I4
I15
I9
tp35
(lp36
I12
as(I17
I25
I10
tp37
(lp38
I9
as(I19
I12
I15
tp39
(lp40
I12
as(I19
I13
I17
tp41
(lp42
I2
as(I20
I21
I8
tp43
(lp44
I21
as(I1
I24
I19
tp45
(lp46
I5
as(I24
I9
I19
tp47
(lp48
I3
as(I9
I5
I21
tp49
(lp50
I5
as(I3
I23
I18
tp51
(lp52
I23
as(I14
I4
I11
tp53
(lp54
I7
as(I4
I14
I22
tp55
(lp56
I14
as(I12
I19
I8
tp57
(lp58
I6
aI21
as(I3
I2
I6
tp59
(lp60
I20
as(I4
I15
I14
tp61
(lp62
I1
aI8
as(I6
I13
I8
tp63
(lp64
I12
aI14
as(I25
I14
I25
tp65
(lp66
I2
aI7
aI9
aI22
as(I15
I20
I15
tp67
(lp68
I10
aI12
aI13
aI24
as(I13
I19
I6
tp69
(lp70
I19
aI20
as(I7
I18
I10
tp71
(lp72
I23
as(I16
I23
I11
tp73
(lp74
I2
aI7
aI18
as(I11
I16
I20
tp75
(lp76
I17
as(I21
I20
I11
tp77
(lp78
I18
as(I13
I6
I18
tp79
(lp80
I20
as(I16
I23
I20
tp81
(lp82
I17
as(I8
I6
I21
tp83
(lp84
I5
aI19
as(I6
I8
I20
tp85
(lp86
I3
as(I23
I3
I17
tp87
(lp88
I2
aI20
as(I2
I3
I6
tp89
(lp90
I1
as(I8
I22
I7
tp91
(lp92
I25
as(I1
I7
I18
tp93
(lp94
I11
as(I11
I12
I4
tp95
(lp96
I10
as(I7
I18
I2
tp97
(lp98
I11
as(I19
I13
I8
tp99
(lp100
I6
as(I5
I9
I12
tp101
(lp102
I9
as(I22
I10
I23
tp103
(lp104
I4
aI10
as(I23
I16
I23
tp105
(lp106
I4
aI10
aI17
aI18
as(I14
I25
I12
tp107
(lp108
I9
as(I18
I5
I23
tp109
(lp110
I17
as(I24
I9
I12
tp111
(lp112
I9
aI15
as(I23
I16
I14
tp113
(lp114
I22
as(I20
I21
I18
tp115
(lp116
I11
aI22
as(I16
I23
I17
tp117
(lp118
I23
as(I3
I2
I11
tp119
(lp120
I2
as(I6
I13
I17
tp121
(lp122
I2
as(I20
I15
I9
tp123
(lp124
I10
aI12
as(I22
I8
I9
tp125
(lp126
I12
as(I12
I19
I24
tp127
(lp128
I5
as(I21
I10
I8
tp129
(lp130
I12
aI14
as(I2
I17
I23
tp131
(lp132
I17
as(I23
I16
I5
tp133
(lp134
I16
aI21
as(I16
I23
I14
tp135
(lp136
I4
as(I18
I7
I4
tp137
(lp138
I7
as(I1
I24
I6
tp139
(lp140
I19
aI20
as(I16
I11
I16
tp141
(lp142
I5
aI11
aI22
as(I12
I11
I15
tp143
(lp144
I13
as(I22
I10
I15
tp145
(lp146
I10
as(I4
I15
I13
tp147
(lp148
I15
as(I14
I25
I4
tp149
(lp150
I7
aI10
as(I13
I6
I2
tp151
(lp152
I11
aI17
as(I7
I1
I10
tp153
(lp154
I9
as(I3
I23
I13
tp155
(lp156
I2
as(I15
I4
I13
tp157
(lp158
I1
aI7
as(I4
I14
I25
tp159
(lp160
I22
as(I3
I2
I23
tp161
(lp162
I17
as(I16
I23
I22
tp163
(lp164
I14
aI18
as(I25
I14
I10
tp165
(lp166
I4
as(I20
I15
I1
tp167
(lp168
I13
as(I1
I7
I9
tp169
(lp170
I25
as(I8
I6
I5
tp171
(lp172
I19
as(I20
I21
I5
tp173
(lp174
I21
as(I11
I16
I4
tp175
(lp176
I14
as(I2
I17
I15
tp177
(lp178
I10
aI24
as(I1
I24
I14
tp179
(lp180
I8
as(I17
I2
I17
tp181
(lp182
I2
aI20
aI23
aI24
as(I16
I11
I24
tp183
(lp184
I17
as(I22
I10
I7
tp185
(lp186
I4
as(I3
I2
I17
tp187
(lp188
I2
as(I7
I1
I2
tp189
(lp190
I13
as(I12
I11
I24
tp191
(lp192
I5
aI17
as(I25
I17
I25
tp193
(lp194
I2
aI7
aI9
aI22
as(I15
I20
I3
tp195
(lp196
I20
as(I6
I13
I1
tp197
(lp198
I13
aI14
as(I25
I14
I2
tp199
(lp200
I13
as(I1
I7
I1
tp201
(lp202
I3
aI6
aI13
aI14
as(I11
I12
I21
tp203
(lp204
I8
as(I22
I8
I25
tp205
(lp206
I7
aI9
as(I13
I19
I13
tp207
(lp208
I1
aI2
aI15
as(I6
I8
I12
tp209
(lp210
I8
as(I21
I10
I24
tp211
(lp212
I15
as(I2
I17
I7
tp213
(lp214
I4
as(I17
I25
I13
tp215
(lp216
I7
as(I5
I18
I5
tp217
(lp218
I16
aI19
aI21
aI24
as(I10
I21
I25
tp219
(lp220
I22
as(I25
I17
I9
tp221
(lp222
I3
aI10
as(I19
I12
I8
tp223
(lp224
I12
as(I19
I13
I16
tp225
(lp226
I11
as(I24
I9
I20
tp227
(lp228
I3
as(I14
I4
I10
tp229
(lp230
I4
as(I15
I20
I10
tp231
(lp232
I9
aI23
as(I4
I14
I9
tp233
(lp234
I3
aI25
as(I12
I19
I9
tp235
(lp236
I3
as(I3
I2
I7
tp237
(lp238
I11
aI25
as(I10
I22
I3
tp239
(lp240
I20
as(I20
I15
I17
tp241
(lp242
I2
aI23
aI24
as(I1
I7
I25
tp243
(lp244
I7
as(I13
I19
I5
tp245
(lp246
I19
as(I7
I18
I11
tp247
(lp248
I16
aI18
as(I21
I10
I16
tp249
(lp250
I22
as(I10
I21
I8
tp251
(lp252
I21
as(I10
I22
I12
tp253
(lp254
I9
as(I13
I6
I19
tp255
(lp256
I6
as(I7
I1
I25
tp257
(lp258
I2
aI9
aI22
as(I1
I24
I17
tp259
(lp260
I24
as(I4
I15
I1
tp261
(lp262
I13
as(I16
I23
I7
tp263
(lp264
I4
as(I14
I4
I18
tp265
(lp266
I11
aI23
as(I9
I24
I15
tp267
(lp268
I12
aI24
as(I8
I6
I20
tp269
(lp270
I6
as(I4
I14
I1
tp271
(lp272
I14
as(I12
I19
I1
tp273
(lp274
I6
as(I20
I21
I22
tp275
(lp276
I16
as(I17
I2
I24
tp277
(lp278
I15
as(I2
I3
I7
tp279
(lp280
I13
aI25
as(I24
I1
I2
tp281
(lp282
I13
as(I21
I20
I21
tp283
(lp284
I5
aI8
aI16
aI19
as(I25
I14
I18
tp285
(lp286
I23
as(I18
I7
I13
tp287
(lp288
I7
as(I8
I22
I6
tp289
(lp290
I1
aI20
as(I11
I12
I5
tp291
(lp292
I24
as(I19
I13
I15
tp293
(lp294
I13
as(I10
I21
I16
tp295
(lp296
I21
as(I22
I10
I22
tp297
(lp298
I14
aI18
aI25
as(I14
I25
I13
tp299
(lp300
I2
aI7
as(I18
I5
I20
tp301
(lp302
I3
aI6
aI17
as(I13
I6
I11
tp303
(lp304
I18
as(I3
I23
I4
tp305
(lp306
I23
as(I19
I12
I24
tp307
(lp308
I12
aI15
as(I5
I9
I15
tp309
(lp310
I10
aI12
as(I21
I10
I9
tp311
(lp312
I10
as(I2
I17
I20
tp313
(lp314
I17
as(I8
I22
I14
tp315
(lp316
I4
aI22
as(I11
I12
I13
tp317
(lp318
I15
as(I13
I19
I21
tp319
(lp320
I19
as(I23
I3
I25
tp321
(lp322
I9
as(I19
I13
I7
tp323
(lp324
I13
as(I16
I11
I17
tp325
(lp326
I2
as(I12
I11
I12
tp327
(lp328
I8
aI9
aI15
aI24
as(I22
I10
I14
tp329
(lp330
I4
as(I24
I9
I5
tp331
(lp332
I19
as(I13
I6
I3
tp333
(lp334
I19
aI20
as(I7
I1
I9
tp335
(lp336
I3
as(I15
I4
I14
tp337
(lp338
I4
as(I23
I16
I15
tp339
(lp340
I24
as(I3
I2
I20
tp341
(lp342
I17
aI18
as(I9
I5
I12
tp343
(lp344
I8
aI15
aI24
as(I6
I13
I6
tp345
(lp346
I1
aI8
aI19
aI20
as(I23
I16
I7
tp347
(lp348
I11
as(I22
I8
I16
tp349
(lp350
I5
aI21
as(I20
I21
I6
tp351
(lp352
I8
aI19
as(I11
I16
I5
tp353
(lp354
I16
as(I2
I3
I23
tp355
(lp356
I10
as(I4
I15
I8
tp357
(lp358
I12
as(I21
I20
I5
tp359
(lp360
I19
aI24
as(I17
I25
I4
tp361
(lp362
I7
as(I24
I1
I6
tp363
(lp364
I1
as(I1
I24
I15
tp365
(lp366
I12
aI24
as(I16
I11
I25
tp367
(lp368
I2
aI7
as(I3
I23
I20
tp369
(lp370
I17
aI18
as(I14
I4
I13
tp371
(lp372
I7
as(I6
I13
I14
tp373
(lp374
I1
aI4
as(I25
I14
I3
tp375
(lp376
I1
as(I9
I24
I23
tp377
(lp378
I17
as(I8
I6
I12
tp379
(lp380
I9
as(I13
I19
I12
tp381
(lp382
I8
as(I21
I10
I25
tp383
(lp384
I9
as(I12
I11
I21
tp385
(lp386
I16
as(I2
I17
I4
tp387
(lp388
I23
as(I14
I25
I18
tp389
(lp390
I11
as(I17
I25
I12
tp391
(lp392
I9
as(I23
I16
I24
tp393
(lp394
I5
as(I19
I12
I9
tp395
(lp396
I12
as(I15
I20
I12
tp397
(lp398
I9
as(I1
I24
I3
tp399
(lp400
I9
aI20
as(I12
I19
I6
tp401
(lp402
I19
as(I23
I3
I6
tp403
(lp404
I1
as(I15
I20
I24
tp405
(lp406
I17
as(I21
I20
I18
tp407
(lp408
I20
as(I10
I22
I10
tp409
(lp410
I4
aI9
aI15
aI23
as(I18
I7
I22
tp411
(lp412
I14
aI16
aI25
as(I24
I1
I19
tp413
(lp414
I3
aI6
as(I17
I25
I18
tp415
(lp416
I22
as(I1
I24
I20
tp417
(lp418
I17
as(I11
I16
I21
tp419
(lp420
I16
as(I5
I9
I22
tp421
(lp422
I25
as(I23
I16
I22
tp423
(lp424
I16
as(I14
I25
I10
tp425
(lp426
I9
as(I17
I25
I20
tp427
(lp428
I3
aI18
as(I13
I6
I20
tp429
(lp430
I6
as(I20
I21
I17
tp431
(lp432
I24
as(I1
I24
I12
tp433
(lp434
I24
as(I19
I12
I1
tp435
(lp436
I14
as(I16
I23
I4
tp437
(lp438
I23
as(I9
I24
I12
tp439
(lp440
I15
aI24
as(I4
I15
I24
tp441
(lp442
I15
as(I23
I16
I11
tp443
(lp444
I16
as(I24
I1
I3
tp445
(lp446
I1
as(I18
I7
I14
tp447
(lp448
I4
as(I8
I22
I1
tp449
(lp450
I14
as(I17
I2
I22
tp451
(lp452
I25
as(I12
I11
I5
tp453
(lp454
I16
aI21
as(I4
I15
I12
tp455
(lp456
I15
as(I14
I25
I2
tp457
(lp458
I25
as(I18
I5
I21
tp459
(lp460
I5
as(I13
I6
I12
tp461
(lp462
I8
as(I10
I22
I20
tp463
(lp464
I18
as(I15
I4
I7
tp465
(lp466
I4
as(I25
I14
I12
tp467
(lp468
I8
as(I11
I16
I14
tp469
(lp470
I8
aI22
as(I8
I22
I9
tp471
(lp472
I25
as(I13
I19
I20
tp473
(lp474
I3
aI6
as(I19
I13
I6
tp475
(lp476
I1
aI20
as(I16
I11
I22
tp477
(lp478
I14
aI18
aI25
as(I12
I11
I13
tp479
(lp480
I2
aI7
as(I13
I6
I4
tp481
(lp482
I14
as(I7
I1
I8
tp483
(lp484
I6
as(I15
I4
I15
tp485
(lp486
I10
aI12
aI13
aI24
as(I10
I21
I15
tp487
(lp488
I12
aI24
as(I23
I3
I10
tp489
(lp490
I9
aI15
as(I9
I5
I15
tp491
(lp492
I24
as(I6
I13
I7
tp493
(lp494
I13
as(I25
I14
I4
tp495
(lp496
I14
as(I10
I22
I9
tp497
(lp498
I3
aI25
as(I1
I7
I15
tp499
(lp500
I10
as(I17
I2
I13
tp501
(lp502
I2
as(I22
I8
I19
tp503
(lp504
I6
as(I13
I19
I11
tp505
(lp506
I16
as(I6
I8
I6
tp507
(lp508
I1
aI8
aI19
aI20
as(I2
I17
I13
tp509
(lp510
I1
aI15
as(I17
I25
I7
tp511
(lp512
I25
as(I22
I8
I1
tp513
(lp514
I6
as(I10
I21
I24
tp515
(lp516
I5
as(I7
I18
I16
tp517
(lp518
I22
as(I10
I22
I4
tp519
(lp520
I7
aI14
aI23
as(I14
I4
I12
tp521
(lp522
I9
as(I15
I4
I23
tp523
(lp524
I4
as(I15
I20
I9
tp525
(lp526
I3
as(I12
I19
I15
tp527
(lp528
I24
as(I23
I3
I2
tp529
(lp530
I25
as(I4
I15
I23
tp531
(lp532
I10
aI17
as(I6
I13
I15
tp533
(lp534
I13
as(I9
I24
I20
tp535
(lp536
I17
as(I13
I19
I3
tp537
(lp538
I19
aI20
as(I6
I8
I14
tp539
(lp540
I8
as(I5
I9
I25
tp541
(lp542
I9
as(I8
I22
I25
tp543
(lp544
I22
as(I15
I20
I13
tp545
(lp546
I1
aI2
as(I1
I24
I9
tp547
(lp548
I12
as(I9
I5
I22
tp549
(lp550
I16
as(I4
I14
I11
tp551
(lp552
I18
as(I20
I21
I16
tp553
(lp554
I21
as(I2
I3
I9
tp555
(lp556
I3
as(I21
I20
I19
tp557
(lp558
I3
aI6
as(I18
I7
I23
tp559
(lp560
I4
aI10
as(I20
I15
I23
tp561
(lp562
I10
as(I11
I16
I22
tp563
(lp564
I14
aI16
as(I10
I21
I14
tp565
(lp566
I8
as(I10
I21
I19
tp567
(lp568
I5
aI21
as(I14
I25
I11
tp569
(lp570
I2
as(I5
I18
I6
tp571
(lp572
I20
as(I17
I25
I23
tp573
(lp574
I4
aI10
as(I23
I16
I17
tp575
(lp576
I2
aI24
as(I17
I2
I20
tp577
(lp578
I3
aI18
as(I16
I11
I14
tp579
(lp580
I4
as(I16
I23
I5
tp581
(lp582
I24
as(I6
I13
I20
tp583
(lp584
I3
aI17
as(I12
I11
I7
tp585
(lp586
I11
as(I4
I14
I3
tp587
(lp588
I1
as(I20
I21
I24
tp589
(lp590
I5
as(I3
I2
I13
tp591
(lp592
I2
aI7
as(I2
I3
I1
tp593
(lp594
I3
as(I11
I12
I7
tp595
(lp596
I4
aI13
aI25
as(I17
I2
I23
tp597
(lp598
I10
aI18
as(I12
I11
I2
tp599
(lp600
I11
as(I22
I10
I20
tp601
(lp602
I3
as(I14
I25
I3
tp603
(lp604
I9
as(I24
I9
I15
tp605
(lp606
I10
aI12
as(I13
I6
I13
tp607
(lp608
I1
aI2
aI7
aI15
as(I3
I23
I6
tp609
(lp610
I20
as(I5
I9
I3
tp611
(lp612
I9
as(I15
I4
I8
tp613
(lp614
I14
as(I3
I2
I18
tp615
(lp616
I11
as(I9
I5
I6
tp617
(lp618
I19
as(I25
I14
I13
tp619
(lp620
I1
as(I9
I24
I5
tp621
(lp622
I24
as(I20
I15
I12
tp623
(lp624
I15
as(I11
I16
I8
tp625
(lp626
I21
as(I4
I15
I17
tp627
(lp628
I24
as(I6
I8
I1
tp629
(lp630
I3
aI14
as(I2
I3
I25
tp631
(lp632
I7
aI9
as(I2
I17
I18
tp633
(lp634
I20
aI23
as(I5
I18
I21
tp635
(lp636
I16
as(I21
I20
I3
tp637
(lp638
I20
as(I8
I22
I8
tp639
(lp640
I6
aI12
aI14
aI21
as(I11
I12
I15
tp641
(lp642
I12
as(I7
I18
I25
tp643
(lp644
I2
aI22
as(I19
I13
I5
tp645
(lp646
I16
aI24
as(I16
I11
I23
tp647
(lp648
I4
as(I22
I10
I12
tp649
(lp650
I15
as(I5
I18
I20
tp651
(lp652
I18
as(I3
I23
I14
tp653
(lp654
I4
as(I14
I4
I7
tp655
(lp656
I4
as(I25
I17
I18
tp657
(lp658
I20
aI23
as(I6
I13
I4
tp659
(lp660
I7
as(I1
I7
I14
tp661
(lp662
I4
aI22
as(I22
I8
I18
tp663
(lp664
I20
as(I6
I8
I9
tp665
(lp666
I12
as(I21
I10
I3
tp667
(lp668
I9
as(I2
I3
I17
tp669
(lp670
I20
aI23
as(I2
I17
I10
tp671
(lp672
I23
as(I11
I16
I18
tp673
(lp674
I20
aI22
as(I8
I22
I16
tp675
(lp676
I11
aI22
as(I1
I24
I13
tp677
(lp678
I2
aI15
as(I15
I20
I6
tp679
(lp680
I20
as(I5
I9
I21
tp681
(lp682
I8
aI19
as(I22
I10
I4
tp683
(lp684
I10
aI23
as(I25
I17
I3
tp685
(lp686
I20
as(I7
I1
I7
tp687
(lp688
I4
aI11
aI13
aI25
as(I15
I4
I24
tp689
(lp690
I17
as(I4
I14
I18
tp691
(lp692
I22
as(I12
I19
I12
tp693
(lp694
I8
aI9
aI15
aI24
as(I10
I22
I7
tp695
(lp696
I25
as(I6
I13
I12
tp697
(lp698
I15
as(I18
I7
I16
tp699
(lp700
I11
as(I1
I7
I6
tp701
(lp702
I20
as(I11
I12
I16
tp703
(lp704
I5
aI21
as(I8
I6
I14
tp705
(lp706
I1
aI22
as(I13
I19
I2
tp707
(lp708
I11
as(I7
I18
I14
tp709
(lp710
I22
as(I5
I9
I24
tp711
(lp712
I12
aI15
as(I2
I17
I2
tp713
(lp714
I11
aI13
aI17
aI25
as(I23
I16
I21
tp715
(lp716
I16
as(I19
I13
I21
tp717
(lp718
I8
as(I16
I11
I7
tp719
(lp720
I11
as(I24
I9
I23
tp721
(lp722
I10
as(I14
I4
I23
tp723
(lp724
I4
aI10
as(I9
I24
I10
tp725
(lp726
I15
aI23
as(I4
I14
I10
tp727
(lp728
I9
aI15
as(I6
I8
I16
tp729
(lp730
I21
as(I3
I2
I10
tp731
(lp732
I23
as(I2
I3
I10
tp733
(lp734
I9
as(I10
I22
I18
tp735
(lp736
I22
as(I21
I20
I16
tp737
(lp738
I11
aI22
as(I20
I15
I20
tp739
(lp740
I3
aI17
aI18
as(I11
I12
I24
tp741
(lp742
I12
as(I21
I10
I19
tp743
(lp744
I3
aI5
as(I5
I9
I16
tp745
(lp746
I22
as(I5
I18
I17
tp747
(lp748
I20
aI23
as(I14
I25
I8
tp749
(lp750
I12
as(I18
I5
I19
tp751
(lp752
I5
as(I17
I25
I22
tp753
(lp754
I25
as(I23
I16
I18
tp755
(lp756
I11
aI22
as(I20
I21
I20
tp757
(lp758
I3
aI6
aI17
aI18
as(I24
I1
I9
tp759
(lp760
I3
as(I15
I4
I1
tp761
(lp762
I14
as(I19
I12
I3
tp763
(lp764
I1
aI9
as(I9
I5
I25
tp765
(lp766
I22
as(I9
I24
I2
tp767
(lp768
I17
as(I22
I8
I5
tp769
(lp770
I21
as(I25
I17
I10
tp771
(lp772
I23
as(I21
I10
I12
tp773
(lp774
I9
aI15
as(I2
I3
I2
tp775
(lp776
I11
aI13
aI17
aI25
as(I24
I1
I5
tp777
(lp778
I19
as(I21
I20
I24
tp779
(lp780
I17
as(I1
I7
I22
tp781
(lp782
I25
as(I1
I24
I2
tp783
(lp784
I17
as(I15
I20
I23
tp785
(lp786
I17
aI18
as(I5
I9
I8
tp787
(lp788
I12
as(I18
I5
I11
tp789
(lp790
I16
as(I25
I17
I2
tp791
(lp792
I17
as(I13
I6
I14
tp793
(lp794
I1
aI8
as(I7
I1
I22
tp795
(lp796
I14
as(I3
I23
I1
tp797
(lp798
I13
aI14
as(I15
I4
I9
tp799
(lp800
I10
aI25
as(I5
I18
I19
tp801
(lp802
I3
aI6
as(I23
I3
I12
tp803
(lp804
I9
as(I9
I5
I1
tp805
(lp806
I6
as(I20
I15
I13
tp807
(lp808
I15
as(I21
I10
I4
tp809
(lp810
I10
as(I18
I5
I18
tp811
(lp812
I11
aI20
aI22
aI23
as(I8
I22
I11
tp813
(lp814
I18
as(I11
I12
I8
tp815
(lp816
I12
as(I25
I17
I7
tp817
(lp818
I4
aI11
aI13
as(I7
I18
I22
tp819
(lp820
I18
as(I11
I16
I7
tp821
(lp822
I4
aI25
as(I18
I5
I3
tp823
(lp824
I19
as(I24
I9
I24
tp825
(lp826
I5
aI12
aI15
aI17
as(I23
I16
I2
tp827
(lp828
I11
as(I7
I1
I14
tp829
(lp830
I1
aI8
as(I3
I23
I9
tp831
(lp832
I10
aI25
as(I15
I4
I17
tp833
(lp834
I23
as(I19
I12
I19
tp835
(lp836
I3
aI5
aI6
aI21
as(I23
I3
I4
tp837
(lp838
I10
aI14
as(I9
I5
I9
tp839
(lp840
I3
aI10
aI12
aI25
as(I6
I13
I5
tp841
(lp842
I24
as(I18
I7
I25
tp843
(lp844
I7
as(I1
I7
I13
tp845
(lp846
I2
aI7
aI15
as(I22
I8
I21
tp847
(lp848
I8
aI19
as(I11
I16
I24
tp849
(lp850
I5
as(I2
I3
I18
tp851
(lp852
I20
as(I2
I17
I11
tp853
(lp854
I7
aI18
as(I10
I22
I14
tp855
(lp856
I22
as(I21
I20
I8
tp857
(lp858
I6
as(I17
I25
I9
tp859
(lp860
I25
as(I5
I18
I22
tp861
(lp862
I18
as(I22
I10
I3
tp863
(lp864
I9
as(I7
I1
I6
tp865
(lp866
I1
as(I3
I23
I17
tp867
(lp868
I23
as(I14
I4
I14
tp869
(lp870
I1
aI4
aI8
aI22
as(I15
I4
I25
tp871
(lp872
I7
as(I3
I2
I3
tp873
(lp874
I1
aI9
aI20
as(I11
I12
I17
tp875
(lp876
I24
as(I8
I6
I9
tp877
(lp878
I3
as(I10
I21
I22
tp879
(lp880
I16
as(I13
I19
I1
tp881
(lp882
I3
aI6
aI14
as(I17
I2
I25
tp883
(lp884
I2
as(I10
I21
I4
tp885
(lp886
I14
as(I2
I17
I3
tp887
(lp888
I20
as(I18
I5
I24
tp889
(lp890
I5
as(I17
I25
I17
tp891
(lp892
I2
aI20
aI23
aI24
as(I19
I13
I20
tp893
(lp894
I3
aI6
as(I16
I11
I4
tp895
(lp896
I7
as(I9
I5
I16
tp897
(lp898
I5
as(I3
I23
I25
tp899
(lp900
I2
as(I14
I4
I22
tp901
(lp902
I18
aI25
as(I4
I14
I13
tp903
(lp904
I1
as(I12
I19
I5
tp905
(lp906
I19
aI21
as(I6
I8
I19
tp907
(lp908
I3
aI5
aI21
as(I23
I3
I20
tp909
(lp910
I3
aI6
as(I2
I3
I11
tp911
(lp912
I18
as(I21
I20
I17
tp913
(lp914
I20
as(I25
I14
I22
tp915
(lp916
I14
aI18
as(I11
I12
I25
tp917
(lp918
I9
as(I1
I24
I5
tp919
(lp920
I24
as(I7
I18
I7
tp921
(lp922
I4
aI11
aI13
aI25
as(I19
I13
I11
tp923
(lp924
I7
as(I10
I21
I12
tp925
(lp926
I8
aI24
as(I14
I25
I9
tp927
(lp928
I25
as(I18
I5
I16
tp929
(lp930
I5
aI21
as(I8
I6
I22
tp931
(lp932
I18
as(I10
I22
I25
tp933
(lp934
I22
as(I25
I17
I11
tp935
(lp936
I2
as(I9
I5
I24
tp937
(lp938
I5
as(I9
I24
I3
tp939
(lp940
I19
aI20
as(I20
I15
I10
tp941
(lp942
I15
as(I23
I3
I18
tp943
(lp944
I20
as(I22
I8
I4
tp945
(lp946
I14
as(I25
I17
I13
tp947
(lp948
I2
as(I2
I17
I24
tp949
(lp950
I17
as(I4
I15
I10
tp951
(lp952
I9
aI15
as(I11
I16
I11
tp953
(lp954
I2
aI7
aI16
aI18
as(I5
I18
I23
tp955
(lp956
I18
as(I17
I2
I9
tp957
(lp958
I25
as(I19
I13
I3
tp959
(lp960
I1
aI20
as(I22
I10
I18
tp961
(lp962
I20
aI23
as(I14
I25
I1
tp963
(lp964
I3
aI13
as(I13
I6
I15
tp965
(lp966
I12
as(I15
I4
I10
tp967
(lp968
I4
aI9
aI23
as(I24
I1
I13
tp969
(lp970
I1
as(I4
I15
I7
tp971
(lp972
I13
as(I23
I3
I15
tp973
(lp974
I12
as(I24
I1
I17
tp975
(lp976
I2
as(I20
I15
I2
tp977
(lp978
I13
as(I22
I8
I12
tp979
(lp980
I8
as(I12
I19
I21
tp981
(lp982
I5
aI19
as(I6
I8
I3
tp983
(lp984
I9
as(I21
I10
I5
tp985
(lp986
I19
aI24
as(I24
I1
I14
tp987
(lp988
I1
as(I11
I16
I17
tp989
(lp990
I24
as(I11
I12
I9
tp991
(lp992
I12
as(I7
I18
I23
tp993
(lp994
I18
as(I12
I11
I17
tp995
(lp996
I2
as(I12
I11
I8
tp997
(lp998
I21
as(I24
I9
I25
tp999
(lp1000
I9
as(I13
I6
I7
tp1001
(lp1002
I4
as(I7
I1
I13
tp1003
(lp1004
I1
as(I14
I4
I1
tp1005
(lp1006
I3
aI13
as(I16
I23
I24
tp1007
(lp1008
I17
as(I25
I17
I20
tp1009
(lp1010
I17
as(I9
I5
I8
tp1011
(lp1012
I21
as(I6
I13
I2
tp1013
(lp1014
I13
as(I25
I14
I7
tp1015
(lp1016
I4
aI13
as(I9
I24
I19
tp1017
(lp1018
I5
as(I22
I8
I20
tp1019
(lp1020
I6
as(I13
I19
I8
tp1021
(lp1022
I21
as(I11
I16
I25
tp1023
(lp1024
I22
as(I8
I22
I18
tp1025
(lp1026
I22
as(I16
I23
I18
tp1027
(lp1028
I20
aI23
as(I19
I13
I19
tp1029
(lp1030
I3
aI5
aI6
aI21
as(I19
I13
I24
tp1031
(lp1032
I15
aI17
as(I24
I9
I17
tp1033
(lp1034
I2
aI20
aI23
as(I8
I6
I18
tp1035
(lp1036
I20
as(I14
I4
I9
tp1037
(lp1038
I10
as(I18
I7
I18
tp1039
(lp1040
I11
aI22
aI23
as(I20
I15
I18
tp1041
(lp1042
I23
as(I1
I7
I4
tp1043
(lp1044
I7
as(I8
I6
I8
tp1045
(lp1046
I6
aI12
aI14
aI21
as(I21
I10
I21
tp1047
(lp1048
I5
aI8
aI16
aI19
as(I5
I18
I16
tp1049
(lp1050
I11
aI22
as(I10
I21
I5
tp1051
(lp1052
I21
as(I8
I6
I1
tp1053
(lp1054
I3
aI6
as(I14
I25
I22
tp1055
(lp1056
I18
aI25
as(I24
I1
I8
tp1057
(lp1058
I6
aI14
as(I19
I12
I5
tp1059
(lp1060
I21
aI24
as(I16
I11
I5
tp1061
(lp1062
I24
as(I9
I5
I19
tp1063
(lp1064
I5
aI21
as(I25
I17
I4
tp1065
(lp1066
I23
as(I20
I21
I19
tp1067
(lp1068
I5
aI21
as(I23
I3
I23
tp1069
(lp1070
I4
aI10
aI17
aI18
as(I5
I18
I3
tp1071
(lp1072
I20
as(I21
I20
I22
tp1073
(lp1074
I18
as(I25
I14
I23
tp1075
(lp1076
I4
as(I18
I7
I10
tp1077
(lp1078
I4
as(I8
I22
I5
tp1079
(lp1080
I16
as(I13
I19
I24
tp1081
(lp1082
I5
as(I7
I18
I4
tp1083
(lp1084
I10
aI14
aI23
as(I15
I20
I17
tp1085
(lp1086
I20
as(I12
I11
I25
tp1087
(lp1088
I2
aI7
as(I22
I10
I25
tp1089
(lp1090
I7
aI9
as(I14
I25
I14
tp1091
(lp1092
I1
aI4
aI8
aI22
as(I18
I5
I17
tp1093
(lp1094
I24
as(I24
I9
I10
tp1095
(lp1096
I9
as(I17
I25
I24
tp1097
(lp1098
I12
as(I13
I6
I8
tp1099
(lp1100
I6
as(I10
I21
I9
tp1101
(lp1102
I3
aI12
aI25
as(I6
I13
I19
tp1103
(lp1104
I3
aI5
as(I14
I4
I25
tp1105
(lp1106
I7
as(I1
I24
I1
tp1107
(lp1108
I3
aI6
aI13
aI14
as(I22
I8
I7
tp1109
(lp1110
I4
as(I4
I14
I4
tp1111
(lp1112
I7
aI10
aI14
aI23
as(I21
I10
I14
tp1113
(lp1114
I4
as(I2
I17
I25
tp1115
(lp1116
I22
as(I18
I7
I2
tp1117
(lp1118
I13
aI25
as(I1
I7
I20
tp1119
(lp1120
I18
as(I11
I12
I2
tp1121
(lp1122
I13
aI17
aI25
as(I13
I19
I16
tp1123
(lp1124
I21
as(I17
I2
I10
tp1125
(lp1126
I9
as(I19
I13
I2
tp1127
(lp1128
I13
as(I16
I11
I18
tp1129
(lp1130
I11
aI23
as(I5
I9
I10
tp1131
(lp1132
I9
as(I24
I9
I2
tp1133
(lp1134
I25
as(I23
I16
I4
tp1135
(lp1136
I7
aI14
as(I3
I23
I3
tp1137
(lp1138
I1
aI9
aI19
aI20
as(I19
I12
I21
tp1139
(lp1140
I5
aI8
as(I23
I3
I14
tp1141
(lp1142
I1
as(I9
I5
I3
tp1143
(lp1144
I1
aI19
as(I25
I14
I8
tp1145
(lp1146
I14
as(I20
I15
I3
tp1147
(lp1148
I1
aI9
as(I1
I7
I11
tp1149
(lp1150
I7
as(I20
I21
I3
tp1151
(lp1152
I19
as(I11
I16
I2
tp1153
(lp1154
I17
aI25
as(I2
I3
I20
tp1155
(lp1156
I3
aI6
as(I24
I1
I15
tp1157
(lp1158
I13
as(I10
I22
I15
tp1159
(lp1160
I12
as(I21
I20
I6
tp1161
(lp1162
I20
as(I17
I25
I3
tp1163
(lp1164
I9
as(I8
I22
I21
tp1165
(lp1166
I5
aI16
as(I23
I16
I10
tp1167
(lp1168
I15
as(I11
I12
I10
tp1169
(lp1170
I9
as(I1
I24
I8
tp1171
(lp1172
I12
as(I15
I20
I1
tp1173
(lp1174
I3
aI6
as(I12
I11
I9
tp1175
(lp1176
I25
as(I22
I10
I9
tp1177
(lp1178
I10
aI12
as(I24
I1
I12
tp1179
(lp1180
I8
aI9
aI15
as(I25
I17
I23
tp1181
(lp1182
I17
as(I3
I2
I25
tp1183
(lp1184
I2
aI7
as(I16
I23
I16
tp1185
(lp1186
I5
aI11
aI22
as(I6
I13
I3
tp1187
(lp1188
I1
as(I1
I7
I3
tp1189
(lp1190
I9
as(I8
I6
I3
tp1191
(lp1192
I1
aI19
as(I13
I19
I15
tp1193
(lp1194
I12
aI24
as(I20
I21
I11
tp1195
(lp1196
I16
as(I17
I25
I11
tp1197
(lp1198
I7
as(I5
I9
I19
tp1199
(lp1200
I3
aI21
as(I19
I12
I14
tp1201
(lp1202
I8
as(I17
I2
I18
tp1203
(lp1204
I11
aI22
as(I16
I11
I2
tp1205
(lp1206
I11
aI13
as(I7
I1
I4
tp1207
(lp1208
I10
aI14
as(I3
I23
I19
tp1209
(lp1210
I6
as(I14
I4
I8
tp1211
(lp1212
I12
as(I4
I14
I23
tp1213
(lp1214
I18
as(I3
I2
I1
tp1215
(lp1216
I6
aI13
as(I2
I3
I13
tp1217
(lp1218
I1
aI7
as(I17
I2
I15
tp1219
(lp1220
I13
as(I4
I15
I4
tp1221
(lp1222
I7
aI10
aI14
aI23
as(I7
I18
I13
tp1223
(lp1224
I2
as(I21
I10
I22
tp1225
(lp1226
I25
as(I10
I21
I10
tp1227
(lp1228
I4
aI9
aI15
as(I2
I17
I1
tp1229
(lp1230
I3
as(I13
I6
I17
tp1231
(lp1232
I20
as(I19
I12
I6
tp1233
(lp1234
I8
as(I9
I24
I9
tp1235
(lp1236
I3
aI10
aI12
aI25
as(I4
I14
I15
tp1237
(lp1238
I13
as(I12
I19
I3
tp1239
(lp1240
I1
aI19
as(I6
I8
I21
tp1241
(lp1242
I8
as(I3
I2
I9
tp1243
(lp1244
I10
aI25
as(I5
I18
I11
tp1245
(lp1246
I18
as(I18
I7
I11
tp1247
(lp1248
I2
aI7
as(I8
I22
I4
tp1249
(lp1250
I7
as(I15
I20
I18
tp1251
(lp1252
I20
as(I18
I5
I22
tp1253
(lp1254
I16
as(I10
I22
I23
tp1255
(lp1256
I4
aI18
as(I16
I11
I13
tp1257
(lp1258
I7
as(I5
I18
I24
tp1259
(lp1260
I17
as(I22
I8
I6
tp1261
(lp1262
I8
as(I4
I14
I7
tp1263
(lp1264
I11
aI13
aI25
as(I21
I10
I15
tp1265
(lp1266
I10
as(I2
I17
I22
tp1267
(lp1268
I18
as(I8
I22
I12
tp1269
(lp1270
I9
as(I17
I2
I11
tp1271
(lp1272
I2
as(I19
I13
I1
tp1273
(lp1274
I13
as(I12
I11
I16
tp1275
(lp1276
I11
as(I5
I9
I5
tp1277
(lp1278
I16
aI19
aI21
aI24
as(I14
I25
I7
tp1279
(lp1280
I25
as(I24
I9
I3
tp1281
(lp1282
I9
as(I13
I6
I1
tp1283
(lp1284
I3
aI6
aI14
as(I7
I1
I11
tp1285
(lp1286
I2
as(I3
I23
I2
tp1287
(lp1288
I17
as(I15
I4
I12
tp1289
(lp1290
I8
aI9
as(I23
I3
I9
tp1291
(lp1292
I3
as(I6
I13
I24
tp1293
(lp1294
I15
as(I25
I14
I9
tp1295
(lp1296
I3
aI10
aI12
as(I9
I24
I25
tp1297
(lp1298
I2
as(I1
I7
I10
tp1299
(lp1300
I4
as(I22
I8
I14
tp1301
(lp1302
I1
aI8
as(I6
I8
I5
tp1303
(lp1304
I16
aI21
as(I17
I25
I2
tp1305
(lp1306
I11
aI13
aI25
as(I8
I22
I20
tp1307
(lp1308
I18
as(I11
I12
I11
tp1309
(lp1310
I2
aI7
aI16
as(I16
I23
I2
tp1311
(lp1312
I17
as(I17
I2
I3
tp1313
(lp1314
I9
as.