(dp0
(I21
I4
I21
tp1
(lp2
I1
aI9
aI11
aI22
as(I12
I16
I23
tp3
(lp4
I10
as(I2
I18
I20
tp5
(lp6
I5
aI17
as(I1
I15
I5
tp7
(lp8
I15
as(I16
I12
I10
tp9
(lp10
I12
aI17
aI23
as(I23
I20
I8
tp11
(lp12
I17
as(I1
I14
I18
tp13
(lp14
I14
aI15
aI19
as(I8
I21
I13
tp15
(lp16
I22
as(I5
I17
I5
tp17
(lp18
I15
aI20
aI22
aI23
as(I13
I24
I13
tp19
(lp20
I6
aI12
aI22
as(I9
I7
I20
tp21
(lp22
I2
as(I20
I23
I7
tp23
(lp24
I4
as(I7
I13
I3
tp25
(lp26
I22
as(I23
I17
I8
tp27
(lp28
I17
as(I15
I8
I5
tp29
(lp30
I20
as(I25
I11
I8
tp31
(lp32
I11
aI16
aI17
as(I1
I15
I13
tp33
(lp34
I22
as(I15
I1
I15
tp35
(lp36
I5
aI17
aI18
aI24
as(I12
I18
I16
tp37
(lp38
I10
aI14
as(I3
I2
I6
tp39
(lp40
I7
as(I25
I4
I13
tp41
(lp42
I6
aI7
as(I18
I12
I8
tp43
(lp44
I25
as(I17
I23
I12
tp45
(lp46
I25
as(I5
I17
I13
tp47
(lp48
I12
as(I19
I10
I24
tp49
(lp50
I14
aI15
as(I10
I3
I20
tp51
(lp52
I2
as(I3
I10
I13
tp53
(lp54
I12
as(I11
I9
I1
tp55
(lp56
I3
as(I12
I16
I14
tp57
(lp58
I16
as(I13
I24
I21
tp59
(lp60
I11
as(I20
I23
I15
tp61
(lp62
I5
as(I8
I15
I21
tp63
(lp64
I22
as(I16
I12
I17
tp65
(lp66
I8
aI10
as(I5
I20
I5
tp67
(lp68
I15
aI20
aI22
aI23
as(I18
I2
I14
tp69
(lp70
I19
aI24
as(I21
I4
I3
tp71
(lp72
I4
as(I1
I15
I21
tp73
(lp74
I11
aI22
as(I25
I4
I21
tp75
(lp76
I1
aI9
as(I2
I3
I6
tp77
(lp78
I1
as(I17
I23
I4
tp79
(lp80
I23
as(I15
I1
I5
tp81
(lp82
I22
aI23
as(I13
I7
I21
tp83
(lp84
I1
aI9
as(I5
I17
I21
tp85
(lp86
I9
as(I20
I5
I7
tp87
(lp88
I4
as(I24
I13
I25
tp89
(lp90
I4
aI12
as(I19
I10
I16
tp91
(lp92
I10
aI12
as(I11
I25
I14
tp93
(lp94
I16
as(I3
I10
I5
tp95
(lp96
I23
as(I11
I9
I25
tp97
(lp98
I4
aI12
as(I12
I16
I6
tp99
(lp100
I18
as(I9
I7
I4
tp101
(lp102
I7
as(I16
I12
I25
tp103
(lp104
I12
as(I18
I2
I6
tp105
(lp106
I1
aI7
as(I18
I12
I19
tp107
(lp108
I14
as(I1
I14
I3
tp109
(lp110
I2
as(I14
I24
I12
tp111
(lp112
I25
as(I25
I11
I3
tp113
(lp114
I1
as(I20
I5
I15
tp115
(lp116
I5
as(I20
I23
I20
tp117
(lp118
I2
aI5
aI9
aI17
as(I10
I3
I4
tp119
(lp120
I3
as(I11
I9
I17
tp121
(lp122
I20
as(I2
I18
I19
tp123
(lp124
I14
aI18
aI24
as(I4
I21
I22
tp125
(lp126
I21
as(I22
I6
I15
tp127
(lp128
I18
as(I8
I15
I5
tp129
(lp130
I15
as(I23
I20
I17
tp131
(lp132
I20
as(I5
I20
I21
tp133
(lp134
I9
as(I14
I24
I17
tp135
(lp136
I15
as(I1
I14
I11
tp137
(lp138
I24
as(I17
I5
I13
tp139
(lp140
I22
as(I2
I3
I22
tp141
(lp142
I3
as(I17
I23
I20
tp143
(lp144
I5
aI9
as(I15
I1
I21
tp145
(lp146
I1
as(I23
I17
I9
tp147
(lp148
I20
as(I9
I7
I19
tp149
(lp150
I18
as(I20
I5
I23
tp151
(lp152
I5
as(I21
I8
I11
tp153
(lp154
I8
aI24
aI25
as(I23
I17
I5
tp155
(lp156
I15
aI20
as(I10
I3
I12
tp157
(lp158
I13
aI25
as(I4
I25
I7
tp159
(lp160
I9
aI13
as(I15
I8
I14
tp161
(lp162
I16
as(I22
I6
I7
tp163
(lp164
I6
as(I23
I20
I9
tp165
(lp166
I20
as(I21
I4
I7
tp167
(lp168
I4
as(I1
I14
I19
tp169
(lp170
I14
aI18
as(I5
I17
I4
tp171
(lp172
I25
as(I9
I11
I14
tp173
(lp174
I24
as(I11
I9
I8
tp175
(lp176
I17
as(I17
I5
I3
tp177
(lp178
I22
as(I13
I7
I13
tp179
(lp180
I6
aI7
aI12
aI22
as(I20
I23
I4
tp181
(lp182
I23
as(I7
I13
I2
tp183
(lp184
I3
as(I24
I14
I24
tp185
(lp186
I11
aI14
aI15
aI19
as(I5
I20
I2
tp187
(lp188
I20
as(I21
I8
I2
tp189
(lp190
I20
as(I2
I18
I3
tp191
(lp192
I1
as(I4
I21
I7
tp193
(lp194
I9
as(I23
I20
I1
tp195
(lp196
I3
aI21
as(I12
I18
I19
tp197
(lp198
I18
as(I3
I2
I7
tp199
(lp200
I9
as(I25
I4
I10
tp201
(lp202
I23
as(I18
I12
I11
tp203
(lp204
I25
as(I8
I21
I22
tp205
(lp206
I21
as(I5
I17
I12
tp207
(lp208
I10
as(I11
I25
I21
tp209
(lp210
I1
as(I10
I3
I21
tp211
(lp212
I22
as(I3
I10
I2
tp213
(lp214
I9
aI20
as(I12
I16
I13
tp215
(lp216
I6
as(I13
I24
I18
tp217
(lp218
I14
aI15
aI19
as(I9
I7
I3
tp219
(lp220
I1
aI4
as(I15
I1
I4
tp221
(lp222
I3
as(I24
I14
I19
tp223
(lp224
I14
aI18
as(I8
I15
I18
tp225
(lp226
I15
as(I16
I12
I16
tp227
(lp228
I8
aI10
aI12
aI14
as(I7
I9
I3
tp229
(lp230
I1
aI2
as(I5
I20
I10
tp231
(lp232
I17
as(I4
I25
I23
tp233
(lp234
I1
aI10
as(I14
I24
I16
tp235
(lp236
I8
aI12
as(I22
I6
I23
tp237
(lp238
I1
as(I14
I1
I11
tp239
(lp240
I21
as(I2
I3
I7
tp241
(lp242
I4
as(I9
I11
I21
tp243
(lp244
I11
as(I7
I9
I20
tp245
(lp246
I9
as(I17
I5
I9
tp247
(lp248
I21
as(I5
I17
I20
tp249
(lp250
I17
as(I19
I10
I17
tp251
(lp252
I10
as(I21
I4
I11
tp253
(lp254
I8
aI25
as(I11
I9
I24
tp255
(lp256
I14
aI19
as(I8
I15
I10
tp257
(lp258
I17
as(I16
I12
I24
tp259
(lp260
I11
as(I5
I20
I18
tp261
(lp262
I19
as(I12
I18
I10
tp263
(lp264
I16
aI17
as(I18
I2
I5
tp265
(lp266
I20
as(I18
I12
I18
tp267
(lp268
I6
aI14
aI15
aI19
as(I1
I14
I12
tp269
(lp270
I16
as(I6
I22
I15
tp271
(lp272
I5
as(I16
I19
I10
tp273
(lp274
I17
as(I23
I17
I16
tp275
(lp276
I8
as(I20
I23
I21
tp277
(lp278
I1
as(I24
I13
I18
tp279
(lp280
I6
as(I10
I3
I5
tp281
(lp282
I22
as(I4
I25
I8
tp283
(lp284
I25
as(I1
I15
I3
tp285
(lp286
I22
as(I4
I21
I23
tp287
(lp288
I1
aI5
as(I3
I2
I20
tp289
(lp290
I2
as(I14
I24
I14
tp291
(lp292
I16
aI18
aI19
aI24
as(I6
I22
I7
tp293
(lp294
I4
aI9
aI13
as(I19
I10
I14
tp295
(lp296
I16
aI18
as(I2
I3
I23
tp297
(lp298
I1
as(I17
I5
I10
tp299
(lp300
I12
aI23
as(I13
I7
I4
tp301
(lp302
I7
as(I9
I7
I18
tp303
(lp304
I6
as(I7
I13
I9
tp305
(lp306
I2
aI21
as(I14
I1
I2
tp307
(lp308
I3
aI9
as(I10
I3
I13
tp309
(lp310
I22
as(I15
I8
I15
tp311
(lp312
I5
aI17
aI18
aI24
as(I1
I15
I11
tp313
(lp314
I24
as(I10
I19
I15
tp315
(lp316
I18
aI24
as(I16
I12
I8
tp317
(lp318
I11
aI17
aI25
as(I23
I20
I10
tp319
(lp320
I16
aI17
as(I25
I4
I3
tp321
(lp322
I4
as(I17
I23
I10
tp323
(lp324
I12
aI23
as(I24
I13
I11
tp325
(lp326
I21
aI25
as(I9
I11
I13
tp327
(lp328
I12
as(I11
I9
I7
tp329
(lp330
I9
as(I17
I5
I2
tp331
(lp332
I3
as(I13
I24
I11
tp333
(lp334
I24
as(I13
I7
I12
tp335
(lp336
I10
aI25
as(I20
I23
I5
tp337
(lp338
I22
aI23
as(I7
I13
I1
tp339
(lp340
I3
aI6
as(I17
I5
I11
tp341
(lp342
I24
as(I5
I20
I3
tp343
(lp344
I2
as(I18
I2
I20
tp345
(lp346
I2
as(I21
I4
I2
tp347
(lp348
I3
as(I2
I18
I2
tp349
(lp350
I3
aI9
aI19
aI20
as(I1
I15
I19
tp351
(lp352
I24
as(I23
I17
I15
tp353
(lp354
I17
as(I23
I20
I2
tp355
(lp356
I20
as(I3
I2
I4
tp357
(lp358
I7
as(I25
I4
I11
tp359
(lp360
I21
as(I18
I12
I10
tp361
(lp362
I12
as(I15
I1
I3
tp363
(lp364
I1
as(I6
I22
I23
tp365
(lp366
I5
as(I8
I21
I23
tp367
(lp368
I1
as(I5
I17
I15
tp369
(lp370
I17
aI24
as(I20
I5
I1
tp371
(lp372
I23
as(I16
I19
I18
tp373
(lp374
I15
aI19
as(I10
I3
I22
tp375
(lp376
I3
as(I3
I10
I3
tp377
(lp378
I1
aI2
aI4
aI22
as(I12
I16
I12
tp379
(lp380
I10
aI13
aI16
aI25
as(I19
I16
I14
tp381
(lp382
I16
aI24
as(I13
I24
I19
tp383
(lp384
I24
as(I9
I7
I2
tp385
(lp386
I3
aI19
as(I4
I21
I8
tp387
(lp388
I11
as(I24
I14
I18
tp389
(lp390
I14
aI19
as(I21
I8
I24
tp391
(lp392
I14
aI15
as(I16
I12
I23
tp393
(lp394
I4
as(I12
I18
I13
tp395
(lp396
I6
aI7
aI22
as(I14
I24
I11
tp397
(lp398
I24
as(I4
I25
I16
tp399
(lp400
I12
as(I22
I6
I22
tp401
(lp402
I3
aI5
aI13
aI21
as(I24
I14
I16
tp403
(lp404
I14
as(I9
I11
I20
tp405
(lp406
I17
as(I15
I1
I11
tp407
(lp408
I21
as(I5
I17
I23
tp409
(lp410
I4
aI10
as(I20
I5
I9
tp411
(lp412
I7
aI21
as(I14
I1
I21
tp413
(lp414
I1
as(I11
I25
I12
tp415
(lp416
I25
as(I21
I4
I8
tp417
(lp418
I25
as(I12
I16
I4
tp419
(lp420
I23
as(I21
I8
I16
tp421
(lp422
I8
as(I8
I15
I11
tp423
(lp424
I21
aI24
as(I10
I19
I8
tp425
(lp426
I11
as(I5
I20
I19
tp427
(lp428
I2
as(I12
I18
I5
tp429
(lp430
I15
as(I1
I14
I13
tp431
(lp432
I12
as(I16
I19
I11
tp433
(lp434
I24
as(I20
I5
I3
tp435
(lp436
I1
aI22
as(I25
I11
I1
tp437
(lp438
I21
as(I17
I23
I18
tp439
(lp440
I6
as(I15
I1
I19
tp441
(lp442
I2
as(I23
I17
I23
tp443
(lp444
I1
aI4
aI5
aI10
as(I20
I5
I17
tp445
(lp446
I10
aI15
as(I24
I13
I19
tp447
(lp448
I18
as(I11
I25
I4
tp449
(lp450
I25
as(I4
I25
I9
tp451
(lp452
I21
as(I2
I18
I17
tp453
(lp454
I15
as(I22
I6
I13
tp455
(lp456
I6
aI7
as(I10
I19
I16
tp457
(lp458
I8
aI14
as(I3
I2
I21
tp459
(lp460
I9
as(I1
I14
I21
tp461
(lp462
I11
as(I6
I22
I6
tp463
(lp464
I1
aI7
aI13
aI18
as(I24
I13
I12
tp465
(lp466
I13
as(I19
I10
I15
tp467
(lp468
I17
as(I9
I11
I4
tp469
(lp470
I25
as(I11
I9
I14
tp471
(lp472
I19
as(I13
I7
I3
tp473
(lp474
I4
as(I20
I23
I2
tp475
(lp476
I3
as(I21
I8
I9
tp477
(lp478
I2
aI20
as(I18
I2
I19
tp479
(lp480
I2
as(I4
I25
I1
tp481
(lp482
I21
as(I2
I18
I9
tp483
(lp484
I7
as(I1
I15
I10
tp485
(lp486
I17
as(I22
I6
I5
tp487
(lp488
I15
aI23
as(I10
I19
I24
tp489
(lp490
I19
as(I17
I23
I9
tp491
(lp492
I21
as(I8
I21
I8
tp493
(lp494
I11
aI16
aI17
aI25
as(I24
I13
I4
tp495
(lp496
I7
as(I25
I11
I17
tp497
(lp498
I15
as(I9
I11
I12
tp499
(lp500
I25
as(I12
I16
I11
tp501
(lp502
I8
as(I13
I24
I8
tp503
(lp504
I11
as(I23
I17
I7
tp505
(lp506
I9
as(I7
I9
I21
tp507
(lp508
I9
as(I20
I23
I10
tp509
(lp510
I23
as(I21
I8
I1
tp511
(lp512
I3
as(I8
I15
I24
tp513
(lp514
I15
as(I2
I18
I1
tp515
(lp516
I6
as(I1
I15
I18
tp517
(lp518
I15
aI19
as(I14
I1
I10
tp519
(lp520
I23
as(I23
I20
I3
tp521
(lp522
I2
as(I23
I17
I25
tp523
(lp524
I8
as(I3
I2
I5
tp525
(lp526
I20
as(I25
I4
I8
tp527
(lp528
I17
as(I2
I3
I9
tp529
(lp530
I7
aI21
as(I18
I12
I13
tp531
(lp532
I12
as(I17
I23
I1
tp533
(lp534
I23
as(I7
I9
I18
tp535
(lp536
I19
as(I8
I21
I16
tp537
(lp538
I10
as(I20
I5
I2
tp539
(lp540
I3
aI19
as(I14
I1
I18
tp541
(lp542
I6
aI19
as(I25
I11
I25
tp543
(lp544
I4
aI8
aI11
aI12
as(I10
I3
I23
tp545
(lp546
I1
aI4
aI5
as(I19
I16
I15
tp547
(lp548
I17
as(I13
I24
I16
tp549
(lp550
I14
as(I14
I1
I23
tp551
(lp552
I1
as(I9
I7
I1
tp553
(lp554
I6
as(I4
I21
I9
tp555
(lp556
I21
as(I21
I8
I25
tp557
(lp558
I8
aI12
as(I8
I15
I16
tp559
(lp560
I10
aI14
as(I12
I18
I12
tp561
(lp562
I10
aI13
aI16
as(I18
I2
I3
tp563
(lp564
I2
as(I4
I25
I17
tp565
(lp566
I8
as(I15
I8
I24
tp567
(lp568
I11
aI14
as(I1
I14
I6
tp569
(lp570
I13
aI18
as(I22
I6
I21
tp571
(lp572
I1
aI9
as(I25
I4
I16
tp573
(lp574
I10
as(I2
I3
I1
tp575
(lp576
I3
as(I9
I11
I19
tp577
(lp578
I14
aI24
as(I17
I23
I25
tp579
(lp580
I4
as(I15
I1
I10
tp581
(lp582
I23
as(I5
I17
I22
tp583
(lp584
I13
aI21
as(I20
I5
I10
tp585
(lp586
I23
as(I24
I14
I12
tp587
(lp588
I16
as(I11
I25
I11
tp589
(lp590
I8
aI21
aI24
aI25
as(I21
I4
I9
tp591
(lp592
I2
aI7
as(I2
I18
I24
tp593
(lp594
I14
aI15
as(I9
I7
I9
tp595
(lp596
I2
aI7
aI20
aI21
as(I21
I8
I17
tp597
(lp598
I8
as(I8
I15
I8
tp599
(lp600
I11
aI16
aI17
aI25
as(I21
I4
I23
tp601
(lp602
I4
as(I15
I8
I16
tp603
(lp604
I8
as(I6
I22
I13
tp605
(lp606
I22
as(I16
I19
I8
tp607
(lp608
I11
aI17
as(I3
I10
I25
tp609
(lp610
I12
as(I17
I23
I17
tp611
(lp612
I8
aI10
aI15
aI20
as(I7
I9
I2
tp613
(lp614
I9
aI20
as(I19
I16
I24
tp615
(lp616
I11
aI14
aI15
as(I20
I5
I18
tp617
(lp618
I15
as(I7
I9
I7
tp619
(lp620
I4
aI6
aI9
aI13
as(I21
I8
I14
tp621
(lp622
I16
as(I11
I25
I3
tp623
(lp624
I4
as(I4
I25
I10
tp625
(lp626
I12
aI16
aI17
as(I1
I15
I1
tp627
(lp628
I3
aI6
aI21
aI23
as(I10
I19
I14
tp629
(lp630
I18
aI19
aI24
as(I10
I19
I17
tp631
(lp632
I15
aI20
as(I6
I22
I5
tp633
(lp634
I22
as(I8
I21
I1
tp635
(lp636
I21
as(I14
I1
I3
tp637
(lp638
I1
as(I14
I24
I18
tp639
(lp640
I15
aI19
as(I19
I10
I12
tp641
(lp642
I10
as(I9
I11
I3
tp643
(lp644
I4
as(I3
I10
I17
tp645
(lp646
I10
as(I11
I9
I13
tp647
(lp648
I7
as(I7
I9
I4
tp649
(lp650
I3
aI23
as(I14
I24
I25
tp651
(lp652
I11
as(I20
I23
I3
tp653
(lp654
I1
aI4
as(I7
I13
I7
tp655
(lp656
I4
aI6
aI9
aI13
as(I21
I4
I25
tp657
(lp658
I4
as(I18
I2
I18
tp659
(lp660
I6
aI14
aI15
aI19
as(I22
I6
I4
tp661
(lp662
I7
as(I16
I12
I14
tp663
(lp664
I24
as(I25
I4
I1
tp665
(lp666
I3
as(I17
I23
I8
tp667
(lp668
I16
aI25
as(I8
I21
I9
tp669
(lp670
I21
as(I16
I19
I24
tp671
(lp672
I15
aI19
as(I24
I13
I5
tp673
(lp674
I22
as(I25
I11
I16
tp675
(lp676
I8
aI14
as(I3
I10
I9
tp677
(lp678
I20
as(I14
I24
I15
tp679
(lp680
I24
as(I12
I16
I10
tp681
(lp682
I16
aI17
as(I19
I16
I8
tp683
(lp684
I16
as(I13
I7
I10
tp685
(lp686
I23
as(I4
I21
I2
tp687
(lp688
I9
as(I15
I1
I18
tp689
(lp690
I6
aI19
as(I8
I15
I25
tp691
(lp692
I11
as(I5
I20
I1
tp693
(lp694
I21
as(I1
I15
I17
tp695
(lp696
I15
as(I23
I20
I4
tp697
(lp698
I3
aI7
as(I25
I4
I9
tp699
(lp700
I7
as(I6
I22
I21
tp701
(lp702
I22
as(I8
I21
I17
tp703
(lp704
I10
aI20
as(I5
I17
I9
tp705
(lp706
I20
as(I15
I1
I2
tp707
(lp708
I3
as(I16
I19
I16
tp709
(lp710
I8
aI10
aI14
as(I14
I1
I19
tp711
(lp712
I2
aI18
as(I25
I11
I24
tp713
(lp714
I11
as(I21
I4
I6
tp715
(lp716
I7
as(I3
I10
I1
tp717
(lp718
I6
aI23
as(I8
I15
I17
tp719
(lp720
I15
aI20
as(I10
I19
I2
tp721
(lp722
I19
as(I5
I20
I9
tp723
(lp724
I2
aI20
as(I12
I18
I15
tp725
(lp726
I18
as(I15
I8
I25
tp727
(lp728
I8
as(I25
I4
I17
tp729
(lp730
I10
as(I2
I3
I2
tp731
(lp732
I3
aI9
aI19
aI20
as(I17
I5
I23
tp733
(lp734
I5
as(I19
I16
I17
tp735
(lp736
I10
as(I8
I21
I25
tp737
(lp738
I4
aI11
aI12
as(I24
I14
I15
tp739
(lp740
I17
aI18
as(I24
I13
I21
tp741
(lp742
I22
as(I19
I10
I20
tp743
(lp744
I17
as(I11
I25
I10
tp745
(lp746
I12
as(I11
I9
I21
tp747
(lp748
I1
aI9
as(I13
I24
I25
tp749
(lp750
I8
aI11
as(I14
I1
I24
tp751
(lp752
I11
aI19
as(I10
I19
I10
tp753
(lp754
I12
aI16
aI17
as(I5
I20
I17
tp755
(lp756
I20
as(I12
I18
I7
tp757
(lp758
I6
as(I24
I14
I11
tp759
(lp760
I8
aI25
as(I21
I4
I1
tp761
(lp762
I3
aI6
aI23
as(I15
I8
I17
tp763
(lp764
I8
aI10
as(I1
I14
I15
tp765
(lp766
I24
as(I25
I11
I15
tp767
(lp768
I24
as(I25
I4
I25
tp769
(lp770
I4
aI8
aI11
aI12
as(I17
I23
I16
tp771
(lp772
I10
as(I7
I9
I1
tp773
(lp774
I21
as(I13
I24
I6
tp775
(lp776
I18
as(I13
I7
I25
tp777
(lp778
I4
as(I5
I17
I25
tp779
(lp780
I8
as(I20
I5
I19
tp781
(lp782
I18
as(I21
I8
I15
tp783
(lp784
I17
as(I21
I4
I22
tp785
(lp786
I3
as(I12
I16
I18
tp787
(lp788
I14
as(I4
I25
I11
tp789
(lp790
I25
as(I22
I6
I3
tp791
(lp792
I1
aI4
as(I10
I19
I18
tp793
(lp794
I19
as(I23
I20
I21
tp795
(lp796
I9
as(I25
I4
I6
tp797
(lp798
I7
as(I1
I14
I23
tp799
(lp800
I10
as(I6
I22
I4
tp801
(lp802
I3
as(I8
I21
I2
tp803
(lp804
I9
as(I24
I13
I14
tp805
(lp806
I16
aI18
as(I2
I3
I18
tp807
(lp808
I6
as(I9
I11
I2
tp809
(lp810
I3
aI19
as(I3
I10
I22
tp811
(lp812
I5
aI13
as(I11
I9
I12
tp813
(lp814
I13
as(I15
I1
I6
tp815
(lp816
I1
as(I13
I24
I14
tp817
(lp818
I24
as(I13
I7
I1
tp819
(lp820
I6
aI21
as(I17
I5
I24
tp821
(lp822
I15
as(I7
I13
I6
tp823
(lp824
I1
aI13
as(I10
I3
I8
tp825
(lp826
I25
as(I18
I2
I17
tp827
(lp828
I20
as(I4
I25
I3
tp829
(lp830
I1
as(I15
I8
I10
tp831
(lp832
I12
aI16
as(I2
I18
I15
tp833
(lp834
I18
as(I3
I2
I3
tp835
(lp836
I1
aI2
aI4
aI22
as(I18
I12
I7
tp837
(lp838
I13
as(I17
I23
I15
tp839
(lp840
I5
aI18
as(I15
I1
I17
tp841
(lp842
I10
as(I8
I21
I10
tp843
(lp844
I23
as(I24
I13
I6
tp845
(lp846
I13
as(I11
I9
I4
tp847
(lp848
I7
as(I13
I24
I22
tp849
(lp850
I5
aI21
as(I13
I7
I9
tp851
(lp852
I7
as(I4
I21
I3
tp853
(lp854
I1
aI2
aI22
as(I23
I17
I21
tp855
(lp856
I9
as(I8
I15
I22
tp857
(lp858
I5
as(I18
I2
I9
tp859
(lp860
I2
as(I2
I18
I7
tp861
(lp862
I6
as(I19
I10
I19
tp863
(lp864
I2
aI14
aI18
aI24
as(I23
I20
I5
tp865
(lp866
I15
aI20
as(I18
I12
I15
tp867
(lp868
I17
as(I14
I24
I19
tp869
(lp870
I18
aI24
as(I5
I17
I8
tp871
(lp872
I17
as(I20
I5
I4
tp873
(lp874
I23
as(I16
I19
I17
tp875
(lp876
I15
as(I14
I1
I16
tp877
(lp878
I10
as(I11
I25
I17
tp879
(lp880
I8
aI10
as(I10
I3
I17
tp881
(lp882
I8
aI20
as(I3
I10
I6
tp883
(lp884
I13
as(I4
I21
I11
tp885
(lp886
I21
as(I7
I13
I22
tp887
(lp888
I13
as(I8
I15
I14
tp889
(lp890
I18
aI24
as(I12
I18
I14
tp891
(lp892
I18
aI19
as(I18
I2
I1
tp893
(lp894
I3
as(I1
I15
I24
tp895
(lp896
I15
as(I9
I11
I17
tp897
(lp898
I8
as(I4
I21
I1
tp899
(lp900
I21
as(I17
I5
I22
tp901
(lp902
I5
as(I19
I16
I18
tp903
(lp904
I14
aI15
as(I5
I17
I16
tp905
(lp906
I8
as(I20
I23
I17
tp907
(lp908
I10
aI15
as(I24
I13
I22
tp909
(lp910
I13
as(I10
I3
I25
tp911
(lp912
I4
as(I11
I9
I20
tp913
(lp914
I9
as(I12
I16
I25
tp915
(lp916
I4
aI8
aI11
as(I4
I25
I12
tp917
(lp918
I25
as(I17
I5
I20
tp919
(lp920
I2
aI5
aI9
as(I10
I19
I11
tp921
(lp922
I24
as(I5
I20
I22
tp923
(lp924
I3
aI21
as(I12
I18
I6
tp925
(lp926
I18
as(I15
I8
I18
tp927
(lp928
I14
as(I6
I22
I3
tp929
(lp930
I22
as(I14
I1
I9
tp931
(lp932
I21
as(I16
I19
I14
tp933
(lp934
I18
aI19
aI24
as(I25
I11
I14
tp935
(lp936
I24
as(I9
I11
I25
tp937
(lp938
I8
aI11
as(I7
I9
I5
tp939
(lp940
I20
as(I23
I17
I20
tp941
(lp942
I17
as(I5
I17
I24
tp943
(lp944
I11
as(I20
I5
I20
tp945
(lp946
I2
aI5
aI9
aI17
as(I21
I8
I12
tp947
(lp948
I16
as(I11
I25
I1
tp949
(lp950
I3
as(I10
I3
I1
tp951
(lp952
I3
aI21
as(I18
I2
I24
tp953
(lp954
I19
as(I12
I16
I17
tp955
(lp956
I8
aI10
as(I4
I25
I4
tp957
(lp958
I3
aI7
aI23
aI25
as(I16
I12
I4
tp959
(lp960
I25
as(I25
I4
I7
tp961
(lp962
I4
as(I1
I14
I16
tp963
(lp964
I14
as(I8
I21
I3
tp965
(lp966
I1
as(I24
I13
I15
tp967
(lp968
I5
aI18
as(I25
I11
I22
tp969
(lp970
I21
as(I19
I10
I2
tp971
(lp972
I20
as(I2
I3
I19
tp973
(lp974
I18
as(I3
I10
I23
tp975
(lp976
I10
as(I11
I9
I11
tp977
(lp978
I8
aI21
aI24
aI25
as(I15
I1
I24
tp979
(lp980
I11
as(I19
I16
I2
tp981
(lp982
I20
as(I13
I24
I15
tp983
(lp984
I24
as(I23
I17
I12
tp985
(lp986
I25
as(I9
I7
I22
tp987
(lp988
I3
aI13
as(I20
I23
I1
tp989
(lp990
I23
as(I21
I8
I4
tp991
(lp992
I25
as(I15
I8
I11
tp993
(lp994
I8
aI25
as(I2
I18
I14
tp995
(lp996
I18
as(I12
I18
I22
tp997
(lp998
I5
as(I18
I12
I6
tp999
(lp1000
I7
aI13
as(I1
I14
I24
tp1001
(lp1002
I14
as(I8
I21
I11
tp1003
(lp1004
I21
as(I7
I9
I19
tp1005
(lp1006
I2
as(I24
I13
I7
tp1007
(lp1008
I13
as(I14
I24
I8
tp1009
(lp1010
I11
aI17
as(I11
I25
I24
tp1011
(lp1012
I14
aI15
as(I9
I11
I9
tp1013
(lp1014
I2
aI7
aI20
aI21
as(I11
I9
I3
tp1015
(lp1016
I2
as(I12
I16
I8
tp1017
(lp1018
I16
aI17
as(I19
I16
I10
tp1019
(lp1020
I16
as(I23
I17
I4
tp1021
(lp1022
I7
aI25
as(I4
I21
I4
tp1023
(lp1024
I3
aI7
aI23
aI25
as(I20
I23
I9
tp1025
(lp1026
I7
aI21
as(I2
I18
I6
tp1027
(lp1028
I18
as(I1
I15
I23
tp1029
(lp1030
I5
aI10
as(I22
I6
I18
tp1031
(lp1032
I6
as(I25
I4
I23
tp1033
(lp1034
I4
as(I2
I3
I4
tp1035
(lp1036
I3
as(I18
I12
I14
tp1037
(lp1038
I16
aI24
as(I17
I23
I6
tp1039
(lp1040
I1
as(I7
I9
I23
tp1041
(lp1042
I5
as(I13
I7
I23
tp1043
(lp1044
I4
as(I5
I17
I11
tp1045
(lp1046
I8
as(I19
I10
I18
tp1047
(lp1048
I14
aI15
as(I11
I25
I16
tp1049
(lp1050
I10
aI12
as(I9
I7
I6
tp1051
(lp1052
I7
as(I21
I8
I20
tp1053
(lp1054
I17
as(I10
I19
I12
tp1055
(lp1056
I16
as(I5
I20
I15
tp1057
(lp1058
I17
aI18
as(I23
I17
I1
tp1059
(lp1060
I21
as(I18
I12
I17
tp1061
(lp1062
I10
as(I1
I14
I1
tp1063
(lp1064
I3
aI6
aI21
aI23
as(I17
I5
I17
tp1065
(lp1066
I8
aI10
aI15
aI20
as(I19
I16
I19
tp1067
(lp1068
I2
aI14
aI18
aI24
as(I15
I1
I22
tp1069
(lp1070
I3
aI21
as(I20
I23
I22
tp1071
(lp1072
I3
as(I11
I25
I8
tp1073
(lp1074
I16
aI17
aI25
as(I11
I9
I19
tp1075
(lp1076
I2
as(I4
I25
I13
tp1077
(lp1078
I12
as(I22
I6
I9
tp1079
(lp1080
I7
as(I10
I19
I20
tp1081
(lp1082
I2
as(I5
I20
I23
tp1083
(lp1084
I1
aI10
as(I18
I12
I25
tp1085
(lp1086
I12
as(I8
I21
I4
tp1087
(lp1088
I3
as(I16
I19
I15
tp1089
(lp1090
I18
aI24
as(I25
I11
I13
tp1091
(lp1092
I22
as(I7
I13
I25
tp1093
(lp1094
I12
as(I2
I3
I20
tp1095
(lp1096
I5
aI9
as(I9
I11
I24
tp1097
(lp1098
I11
as(I17
I5
I15
tp1099
(lp1100
I5
as(I15
I1
I23
tp1101
(lp1102
I1
aI4
as(I20
I5
I21
tp1103
(lp1104
I22
as(I7
I13
I12
tp1105
(lp1106
I13
as(I10
I3
I2
tp1107
(lp1108
I3
as(I15
I8
I12
tp1109
(lp1110
I25
as(I1
I15
I6
tp1111
(lp1112
I13
aI18
as(I22
I6
I1
tp1113
(lp1114
I6
as(I16
I12
I11
tp1115
(lp1116
I25
as(I23
I20
I23
tp1117
(lp1118
I1
aI4
aI5
aI10
as(I17
I5
I12
tp1119
(lp1120
I13
as(I8
I21
I12
tp1121
(lp1122
I13
as(I14
I1
I6
tp1123
(lp1124
I1
as(I25
I11
I21
tp1125
(lp1126
I11
as(I3
I10
I20
tp1127
(lp1128
I17
as(I13
I24
I12
tp1129
(lp1130
I16
aI25
as(I9
I7
I21
tp1131
(lp1132
I1
aI22
as(I24
I14
I25
tp1133
(lp1134
I12
as(I7
I13
I4
tp1135
(lp1136
I3
aI25
as(I10
I3
I10
tp1137
(lp1138
I12
aI17
aI23
as(I7
I9
I13
tp1139
(lp1140
I22
as(I23
I20
I15
tp1141
(lp1142
I17
as(I12
I18
I17
tp1143
(lp1144
I15
as(I3
I2
I1
tp1145
(lp1146
I6
aI21
as(I25
I4
I12
tp1147
(lp1148
I10
aI13
aI16
as(I6
I22
I18
tp1149
(lp1150
I15
as(I8
I21
I20
tp1151
(lp1152
I2
aI9
as(I14
I1
I14
tp1153
(lp1154
I16
aI18
aI19
aI24
as(I9
I11
I8
tp1155
(lp1156
I11
as(I3
I10
I12
tp1157
(lp1158
I10
as(I11
I9
I2
tp1159
(lp1160
I9
aI20
as(I19
I16
I11
tp1161
(lp1162
I8
as(I4
I21
I5
tp1163
(lp1164
I22
as(I24
I14
I17
tp1165
(lp1166
I10
as(I8
I15
I20
tp1167
(lp1168
I5
as(I18
I2
I15
tp1169
(lp1170
I5
aI17
aI24
as(I21
I8
I3
tp1171
(lp1172
I4
as(I4
I25
I21
tp1173
(lp1174
I11
as(I2
I18
I5
tp1175
(lp1176
I15
as(I1
I15
I22
tp1177
(lp1178
I5
as(I23
I20
I7
tp1179
(lp1180
I9
as(I3
I2
I9
tp1181
(lp1182
I2
aI20
as(I2
I3
I5
tp1183
(lp1184
I22
aI23
as(I17
I23
I5
tp1185
(lp1186
I23
as(I7
I9
I22
tp1187
(lp1188
I21
as(I13
I7
I22
tp1189
(lp1190
I3
aI21
as(I5
I17
I10
tp1191
(lp1192
I16
aI17
as(I24
I13
I24
tp1193
(lp1194
I11
aI14
aI15
aI19
as(I7
I13
I21
tp1195
(lp1196
I1
aI22
as(I11
I25
I15
tp1197
(lp1198
I17
as(I3
I10
I4
tp1199
(lp1200
I23
aI25
as(I17
I5
I21
tp1201
(lp1202
I22
as(I21
I8
I21
tp1203
(lp1204
I1
aI9
aI11
as(I18
I2
I7
tp1205
(lp1206
I9
as(I4
I21
I25
tp1207
(lp1208
I8
aI11
as(I18
I12
I16
tp1209
(lp1210
I8
aI10
aI12
as(I15
I8
I20
tp1211
(lp1212
I17
as(I1
I14
I2
tp1213
(lp1214
I19
as(I6
I22
I9
tp1215
(lp1216
I21
as(I25
I11
I4
tp1217
(lp1218
I3
as(I17
I5
I16
tp1219
(lp1220
I10
as(I19
I16
I20
tp1221
(lp1222
I17
as(I17
I5
I8
tp1223
(lp1224
I11
aI16
as(I24
I14
I8
tp1225
(lp1226
I16
as(I24
I13
I16
tp1227
(lp1228
I12
as(I24
I14
I10
tp1229
(lp1230
I16
as(I9
I7
I13
tp1231
(lp1232
I7
as(I23
I17
I10
tp1233
(lp1234
I12
aI16
aI17
as(I23
I20
I16
tp1235
(lp1236
I8
as(I3
I2
I22
tp1237
(lp1238
I5
aI21
as(I18
I12
I24
tp1239
(lp1240
I11
as(I1
I14
I10
tp1241
(lp1242
I16
as(I6
I22
I1
tp1243
(lp1244
I3
aI21
aI23
as(I25
I11
I12
tp1245
(lp1246
I13
aI16
as(I2
I3
I21
tp1247
(lp1248
I1
aI22
as(I9
I11
I7
tp1249
(lp1250
I4
aI13
as(I17
I23
I21
tp1251
(lp1252
I1
as(I7
I9
I6
tp1253
(lp1254
I1
aI18
as(I13
I24
I5
tp1255
(lp1256
I15
as(I13
I7
I6
tp1257
(lp1258
I1
aI7
as(I20
I5
I22
tp1259
(lp1260
I5
as.