(dp0
(I15
I33
I17
tp1
(lp2
I34
as(I40
I25
I1
tp3
(lp4
I23
as(I37
I12
I20
tp5
(lp6
I38
aI45
as(I22
I27
I21
tp7
(lp8
I28
as(I43
I23
I49
tp9
(lp10
I31
aI50
as(I16
I39
I45
tp11
(lp12
I20
as(I28
I34
I6
tp13
(lp14
I23
as(I26
I17
I38
tp15
(lp16
I2
as(I8
I4
I13
tp17
(lp18
I4
as(I42
I47
I45
tp19
(lp20
I15
as(I21
I5
I9
tp21
(lp22
I4
aI40
as(I5
I11
I19
tp23
(lp24
I11
as(I44
I14
I39
tp25
(lp26
I20
as(I48
I33
I21
tp27
(lp28
I6
aI9
as(I25
I12
I23
tp29
(lp30
I1
aI33
as(I27
I21
I8
tp31
(lp32
I28
as(I31
I3
I31
tp33
(lp34
I41
aI44
aI49
as(I13
I48
I24
tp35
(lp36
I48
as(I1
I32
I23
tp37
(lp38
I6
as(I18
I4
I13
tp39
(lp40
I4
as(I11
I40
I9
tp41
(lp42
I40
as(I30
I34
I8
tp43
(lp44
I1
as(I19
I41
I11
tp45
(lp46
I8
aI44
as(I2
I30
I12
tp47
(lp48
I7
aI15
aI17
as(I11
I5
I1
tp49
(lp50
I30
as(I37
I47
I38
tp51
(lp52
I2
as(I29
I5
I4
tp53
(lp54
I5
as(I47
I7
I26
tp55
(lp56
I7
as(I34
I28
I3
tp57
(lp58
I48
as(I1
I49
I10
tp59
(lp60
I41
as(I43
I44
I32
tp61
(lp62
I44
as(I3
I27
I43
tp63
(lp64
I27
as(I20
I36
I38
tp65
(lp66
I7
aI19
as(I42
I41
I25
tp67
(lp68
I47
as(I41
I36
I34
tp69
(lp70
I1
as(I1
I43
I23
tp71
(lp72
I6
aI25
as(I30
I16
I27
tp73
(lp74
I16
as(I6
I27
I22
tp75
(lp76
I16
as(I34
I24
I17
tp77
(lp78
I42
aI46
as(I10
I9
I5
tp79
(lp80
I28
as(I16
I13
I22
tp81
(lp82
I9
aI48
as(I13
I50
I44
tp83
(lp84
I31
as(I37
I12
I45
tp85
(lp86
I15
as(I43
I23
I40
tp87
(lp88
I33
as(I16
I30
I25
tp89
(lp90
I24
as(I35
I43
I24
tp91
(lp92
I42
as(I41
I19
I44
tp93
(lp94
I11
as(I21
I8
I26
tp95
(lp96
I30
as(I3
I29
I9
tp97
(lp98
I22
as(I47
I37
I24
tp99
(lp100
I42
as(I22
I45
I39
tp101
(lp102
I20
as(I31
I38
I44
tp103
(lp104
I11
aI32
as(I41
I19
I41
tp105
(lp106
I29
aI31
aI47
as(I40
I28
I48
tp107
(lp108
I21
as(I36
I41
I14
tp109
(lp110
I35
as(I24
I21
I35
tp111
(lp112
I22
as(I9
I10
I50
tp113
(lp114
I31
as(I4
I18
I36
tp115
(lp116
I14
as(I7
I9
I21
tp117
(lp118
I9
as(I18
I4
I36
tp119
(lp120
I5
as(I50
I42
I43
tp121
(lp122
I27
aI42
as(I42
I18
I19
tp123
(lp124
I27
as(I36
I19
I1
tp125
(lp126
I8
as(I19
I41
I31
tp127
(lp128
I41
as(I7
I44
I1
tp129
(lp130
I8
as(I23
I26
I30
tp131
(lp132
I26
as(I15
I2
I45
tp133
(lp134
I20
aI27
as(I1
I18
I14
tp135
(lp136
I16
as(I44
I7
I50
tp137
(lp138
I40
as(I17
I26
I50
tp139
(lp140
I40
as(I22
I29
I22
tp141
(lp142
I9
aI16
aI35
aI48
as(I27
I22
I27
tp143
(lp144
I16
aI19
aI43
aI45
as(I39
I29
I41
tp145
(lp146
I29
as(I3
I12
I4
tp147
(lp148
I13
as(I48
I22
I48
tp149
(lp150
I3
aI21
aI22
aI24
as(I12
I3
I10
tp151
(lp152
I3
as(I47
I42
I37
tp153
(lp154
I42
as(I24
I46
I47
tp155
(lp156
I15
aI46
as(I28
I40
I9
tp157
(lp158
I4
aI40
as(I42
I41
I46
tp159
(lp160
I47
aI50
as(I20
I17
I10
tp161
(lp162
I34
as(I22
I48
I21
tp163
(lp164
I48
as(I29
I3
I29
tp165
(lp166
I3
aI35
aI39
aI41
as(I47
I37
I39
tp167
(lp168
I20
as(I6
I45
I18
tp169
(lp170
I45
as(I16
I10
I35
tp171
(lp172
I29
as(I17
I40
I50
tp173
(lp174
I40
as(I44
I43
I19
tp175
(lp176
I27
as(I14
I36
I24
tp177
(lp178
I30
as(I3
I27
I16
tp179
(lp180
I27
as(I32
I1
I15
tp181
(lp182
I8
as(I49
I35
I41
tp183
(lp184
I29
aI47
as(I48
I33
I9
tp185
(lp186
I40
as(I30
I23
I8
tp187
(lp188
I1
as(I38
I6
I4
tp189
(lp190
I9
as(I34
I24
I46
tp191
(lp192
I47
as(I50
I31
I18
tp193
(lp194
I32
as(I26
I44
I32
tp195
(lp196
I44
as(I41
I19
I8
tp197
(lp198
I11
as(I43
I23
I17
tp199
(lp200
I34
as(I43
I35
I31
tp201
(lp202
I41
as(I36
I14
I36
tp203
(lp204
I5
aI11
aI14
aI30
as(I3
I31
I6
tp205
(lp206
I44
as(I12
I25
I7
tp207
(lp208
I26
aI33
as(I2
I15
I45
tp209
(lp210
I15
as(I40
I17
I46
tp211
(lp212
I2
aI17
as(I3
I12
I29
tp213
(lp214
I41
as(I48
I22
I43
tp215
(lp216
I27
as(I50
I42
I46
tp217
(lp218
I2
aI17
aI47
as(I20
I36
I20
tp219
(lp220
I37
aI38
aI39
aI45
as(I28
I40
I50
tp221
(lp222
I40
as(I39
I16
I22
tp223
(lp224
I16
as(I40
I11
I50
tp225
(lp226
I31
aI49
as(I49
I4
I40
tp227
(lp228
I9
aI13
as(I25
I11
I42
tp229
(lp230
I37
as(I2
I41
I40
tp231
(lp232
I50
as(I1
I49
I42
tp233
(lp234
I43
as(I35
I38
I14
tp235
(lp236
I16
aI36
aI37
as(I27
I3
I20
tp237
(lp238
I39
as(I23
I32
I11
tp239
(lp240
I44
as(I45
I18
I32
tp241
(lp242
I18
as(I50
I8
I15
tp243
(lp244
I8
as(I38
I6
I19
tp245
(lp246
I11
as(I9
I10
I3
tp247
(lp248
I10
as(I25
I9
I4
tp249
(lp250
I9
as(I46
I17
I41
tp251
(lp252
I10
as(I40
I25
I26
tp253
(lp254
I6
as(I38
I31
I19
tp255
(lp256
I11
aI27
as(I14
I44
I35
tp257
(lp258
I25
as(I43
I23
I8
tp259
(lp260
I1
as(I37
I19
I37
tp261
(lp262
I14
aI19
aI20
aI42
as(I25
I12
I46
tp263
(lp264
I2
aI17
as(I45
I22
I18
tp265
(lp266
I16
as(I19
I36
I8
tp267
(lp268
I28
as(I39
I29
I32
tp269
(lp270
I44
as(I41
I42
I46
tp271
(lp272
I17
as(I44
I26
I23
tp273
(lp274
I1
aI33
as(I40
I17
I23
tp275
(lp276
I1
as(I34
I10
I13
tp277
(lp278
I4
as(I31
I3
I6
tp279
(lp280
I21
as(I38
I46
I38
tp281
(lp282
I2
aI7
aI19
as(I4
I18
I4
tp283
(lp284
I5
aI9
aI10
aI13
as(I11
I39
I37
tp285
(lp286
I20
as(I20
I45
I14
tp287
(lp288
I16
as(I15
I19
I8
tp289
(lp290
I11
aI28
as(I8
I50
I21
tp291
(lp292
I9
as(I11
I40
I50
tp293
(lp294
I40
as(I23
I32
I28
tp295
(lp296
I5
as(I45
I22
I47
tp297
(lp298
I25
as(I24
I33
I30
tp299
(lp300
I1
aI26
as(I39
I11
I32
tp301
(lp302
I5
aI44
as(I50
I13
I40
tp303
(lp304
I9
aI13
aI33
as(I46
I38
I50
tp305
(lp306
I40
as(I29
I3
I35
tp307
(lp308
I22
aI25
as(I29
I5
I31
tp309
(lp310
I44
as(I24
I34
I25
tp311
(lp312
I23
aI47
as(I34
I28
I10
tp313
(lp314
I3
aI4
as(I10
I16
I22
tp315
(lp316
I16
as(I35
I38
I23
tp317
(lp318
I33
as(I45
I6
I26
tp319
(lp320
I6
as(I38
I35
I33
tp321
(lp322
I23
as(I42
I41
I14
tp323
(lp324
I35
as(I46
I48
I47
tp325
(lp326
I25
aI41
as(I50
I42
I2
tp327
(lp328
I12
as(I8
I21
I30
tp329
(lp330
I24
aI26
as(I6
I27
I31
tp331
(lp332
I49
as(I48
I46
I35
tp333
(lp334
I25
as(I15
I33
I7
tp335
(lp336
I33
as(I16
I10
I3
tp337
(lp338
I10
as(I43
I1
I30
tp339
(lp340
I1
as(I14
I44
I26
tp341
(lp342
I6
as(I41
I2
I12
tp343
(lp344
I2
as(I35
I43
I19
tp345
(lp346
I27
as(I33
I24
I33
tp347
(lp348
I7
aI23
aI34
aI40
as(I38
I46
I42
tp349
(lp350
I17
as(I47
I37
I15
tp351
(lp352
I12
aI45
as(I46
I24
I30
tp353
(lp354
I24
as(I30
I23
I40
tp355
(lp356
I33
as(I7
I44
I19
tp357
(lp358
I11
as(I37
I47
I15
tp359
(lp360
I47
as(I4
I8
I41
tp361
(lp362
I47
as(I46
I38
I12
tp363
(lp364
I2
aI7
as(I31
I3
I41
tp365
(lp366
I10
aI29
aI47
as(I7
I2
I13
tp367
(lp368
I2
as(I1
I32
I5
tp369
(lp370
I32
as(I2
I15
I2
tp371
(lp372
I12
aI13
aI38
aI46
as(I24
I33
I7
tp373
(lp374
I33
as(I39
I16
I32
tp375
(lp376
I5
aI18
as(I23
I26
I7
tp377
(lp378
I26
as(I25
I12
I17
tp379
(lp380
I12
as(I47
I7
I12
tp381
(lp382
I2
aI7
as(I34
I28
I21
tp383
(lp384
I28
as(I49
I1
I34
tp385
(lp386
I1
as(I27
I22
I16
tp387
(lp388
I14
aI22
as(I1
I49
I28
tp389
(lp390
I43
as(I43
I44
I50
tp391
(lp392
I31
as(I31
I20
I43
tp393
(lp394
I42
as(I25
I11
I19
tp395
(lp396
I11
as(I45
I20
I38
tp397
(lp398
I20
as(I6
I45
I23
tp399
(lp400
I25
as(I6
I45
I27
tp401
(lp402
I45
as(I11
I25
I36
tp403
(lp404
I14
aI30
as(I38
I31
I45
tp405
(lp406
I18
as(I22
I27
I48
tp407
(lp408
I24
as(I16
I30
I11
tp409
(lp410
I36
as(I35
I43
I42
tp411
(lp412
I43
as(I32
I23
I6
tp413
(lp414
I23
aI26
as(I18
I1
I49
tp415
(lp416
I43
as(I20
I31
I49
tp417
(lp418
I31
aI50
as(I10
I34
I9
tp419
(lp420
I40
as(I49
I35
I16
tp421
(lp422
I14
aI22
as(I35
I49
I43
tp423
(lp424
I49
as(I31
I50
I42
tp425
(lp426
I17
as(I50
I8
I47
tp427
(lp428
I15
as(I23
I30
I26
tp429
(lp430
I30
as(I41
I36
I32
tp431
(lp432
I5
as(I44
I26
I33
tp433
(lp434
I7
as(I31
I3
I48
tp435
(lp436
I3
as(I25
I40
I25
tp437
(lp438
I23
aI24
aI35
aI47
as(I27
I6
I22
tp439
(lp440
I9
aI48
as(I43
I35
I22
tp441
(lp442
I35
as(I1
I43
I11
tp443
(lp444
I19
as(I21
I5
I11
tp445
(lp446
I36
as(I24
I33
I48
tp447
(lp448
I3
as(I12
I25
I8
tp449
(lp450
I1
as(I20
I45
I37
tp451
(lp452
I14
aI19
aI42
as(I23
I26
I44
tp453
(lp454
I11
as(I1
I18
I16
tp455
(lp456
I18
as(I46
I24
I34
tp457
(lp458
I1
as(I29
I39
I20
tp459
(lp460
I39
as(I11
I39
I5
tp461
(lp462
I32
as(I12
I3
I24
tp463
(lp464
I48
as(I43
I1
I23
tp465
(lp466
I1
as(I20
I36
I11
tp467
(lp468
I36
as(I38
I35
I19
tp469
(lp470
I11
aI27
aI37
as(I35
I49
I29
tp471
(lp472
I39
aI41
as(I36
I20
I24
tp473
(lp474
I42
as(I22
I48
I39
tp475
(lp476
I3
as(I6
I45
I32
tp477
(lp478
I18
aI39
as(I34
I28
I42
tp479
(lp480
I43
as(I18
I42
I17
tp481
(lp482
I42
as(I2
I41
I49
tp483
(lp484
I31
as(I23
I43
I25
tp485
(lp486
I24
as(I32
I23
I31
tp487
(lp488
I50
as(I18
I1
I6
tp489
(lp490
I23
as(I21
I8
I33
tp491
(lp492
I34
as(I30
I2
I13
tp493
(lp494
I2
as(I49
I35
I39
tp495
(lp496
I29
as(I48
I13
I21
tp497
(lp498
I6
aI9
aI28
as(I23
I30
I35
tp499
(lp500
I14
as(I48
I46
I3
tp501
(lp502
I10
aI29
as(I50
I31
I4
tp503
(lp504
I10
as(I13
I48
I21
tp505
(lp506
I48
as(I24
I21
I6
tp507
(lp508
I21
as(I18
I42
I28
tp509
(lp510
I43
as(I16
I39
I27
tp511
(lp512
I45
as(I37
I19
I16
tp513
(lp514
I27
as(I21
I27
I8
tp515
(lp516
I11
aI15
as(I13
I16
I22
tp517
(lp518
I16
as(I37
I19
I44
tp519
(lp520
I11
as(I3
I31
I48
tp521
(lp522
I21
as(I36
I19
I36
tp523
(lp524
I5
aI11
aI14
aI30
as(I31
I38
I2
tp525
(lp526
I38
as(I8
I26
I28
tp527
(lp528
I21
as(I33
I48
I25
tp529
(lp530
I24
as(I5
I11
I1
tp531
(lp532
I8
aI30
as(I41
I42
I39
tp533
(lp534
I20
as(I17
I26
I13
tp535
(lp536
I26
as(I44
I26
I30
tp537
(lp538
I26
as(I4
I8
I9
tp539
(lp540
I21
as(I43
I23
I50
tp541
(lp542
I40
as(I48
I22
I21
tp543
(lp544
I9
aI28
as(I33
I15
I12
tp545
(lp546
I15
as(I8
I50
I28
tp547
(lp548
I21
aI43
as(I31
I50
I43
tp549
(lp550
I42
as(I20
I17
I45
tp551
(lp552
I15
aI27
as(I24
I34
I17
tp553
(lp554
I34
as(I2
I30
I26
tp555
(lp556
I30
as(I50
I13
I17
tp557
(lp558
I12
as(I26
I8
I36
tp559
(lp560
I5
aI11
as(I29
I5
I22
tp561
(lp562
I9
as(I14
I47
I37
tp563
(lp564
I20
aI42
as(I2
I41
I38
tp565
(lp566
I20
as(I27
I22
I48
tp567
(lp568
I22
as(I9
I14
I25
tp569
(lp570
I35
as(I13
I48
I40
tp571
(lp572
I9
as(I16
I39
I29
tp573
(lp574
I39
as(I44
I26
I36
tp575
(lp576
I30
as(I30
I2
I36
tp577
(lp578
I11
as(I46
I48
I22
tp579
(lp580
I48
as(I44
I7
I11
tp581
(lp582
I8
aI19
aI36
as(I48
I46
I42
tp583
(lp584
I17
as(I34
I24
I3
tp585
(lp586
I48
as(I26
I44
I13
tp587
(lp588
I4
aI40
as(I5
I28
I49
tp589
(lp590
I43
as(I43
I1
I5
tp591
(lp592
I36
as(I38
I31
I13
tp593
(lp594
I40
as(I22
I27
I16
tp595
(lp596
I14
aI18
aI27
as(I12
I37
I15
tp597
(lp598
I8
aI45
as(I16
I39
I48
tp599
(lp600
I3
as(I25
I40
I47
tp601
(lp602
I41
aI46
as(I18
I42
I37
tp603
(lp604
I42
as(I37
I19
I27
tp605
(lp606
I19
as(I38
I46
I17
tp607
(lp608
I46
as(I31
I38
I43
tp609
(lp610
I27
as(I31
I50
I10
tp611
(lp612
I4
aI34
as(I26
I8
I12
tp613
(lp614
I15
as(I44
I14
I32
tp615
(lp616
I5
aI18
aI39
as(I41
I42
I48
tp617
(lp618
I24
as(I22
I45
I48
tp619
(lp620
I3
as(I40
I28
I6
tp621
(lp622
I21
as(I44
I26
I1
tp623
(lp624
I30
as(I4
I8
I32
tp625
(lp626
I44
as(I34
I10
I3
tp627
(lp628
I10
as(I14
I36
I32
tp629
(lp630
I5
as(I46
I48
I21
tp631
(lp632
I48
as(I12
I25
I34
tp633
(lp634
I1
as(I1
I32
I18
tp635
(lp636
I32
as(I18
I4
I22
tp637
(lp638
I9
as(I11
I40
I4
tp639
(lp640
I9
as(I16
I39
I3
tp641
(lp642
I29
aI39
as(I32
I10
I31
tp643
(lp644
I41
as(I11
I5
I14
tp645
(lp646
I16
aI36
as(I39
I28
I8
tp647
(lp648
I28
as(I47
I7
I23
tp649
(lp650
I33
as(I5
I29
I36
tp651
(lp652
I14
as(I22
I29
I4
tp653
(lp654
I10
as(I27
I22
I9
tp655
(lp656
I22
as(I1
I49
I23
tp657
(lp658
I33
as(I28
I39
I44
tp659
(lp660
I32
as(I18
I4
I41
tp661
(lp662
I10
as(I41
I2
I46
tp663
(lp664
I2
aI17
as(I1
I43
I25
tp665
(lp666
I24
as(I8
I21
I8
tp667
(lp668
I1
aI11
aI28
as(I6
I32
I39
tp669
(lp670
I32
as(I25
I9
I33
tp671
(lp672
I40
as(I46
I24
I47
tp673
(lp674
I25
aI41
as(I2
I41
I17
tp675
(lp676
I34
as(I35
I43
I37
tp677
(lp678
I19
aI42
as(I13
I16
I36
tp679
(lp680
I14
as(I13
I15
I41
tp681
(lp682
I47
as(I21
I8
I1
tp683
(lp684
I8
as(I31
I3
I21
tp685
(lp686
I48
as(I26
I17
I2
tp687
(lp688
I12
aI46
as(I6
I38
I6
tp689
(lp690
I23
aI26
aI44
as(I47
I37
I29
tp691
(lp692
I39
as(I30
I23
I26
tp693
(lp694
I6
aI7
aI13
as(I47
I14
I41
tp695
(lp696
I29
as(I2
I7
I50
tp697
(lp698
I40
as(I41
I19
I46
tp699
(lp700
I2
as(I6
I32
I6
tp701
(lp702
I21
aI26
aI44
as(I19
I15
I27
tp703
(lp704
I16
aI45
as(I44
I26
I40
tp705
(lp706
I13
as(I26
I44
I50
tp707
(lp708
I31
as(I27
I21
I44
tp709
(lp710
I6
as(I21
I24
I48
tp711
(lp712
I22
aI24
as(I25
I40
I22
tp713
(lp714
I9
as(I13
I15
I46
tp715
(lp716
I17
aI47
as(I15
I19
I45
tp717
(lp718
I18
aI20
aI27
as(I8
I50
I46
tp719
(lp720
I50
as(I28
I40
I33
tp721
(lp722
I40
as(I39
I11
I5
tp723
(lp724
I28
aI36
as(I9
I10
I28
tp725
(lp726
I5
as(I39
I28
I49
tp727
(lp728
I43
as(I6
I38
I36
tp729
(lp730
I11
as(I28
I5
I8
tp731
(lp732
I1
aI11
as(I3
I12
I15
tp733
(lp734
I12
as(I12
I3
I17
tp735
(lp736
I34
aI42
as(I31
I20
I29
tp737
(lp738
I3
aI39
as(I36
I20
I15
tp739
(lp740
I45
as(I15
I19
I2
tp741
(lp742
I38
as(I9
I10
I9
tp743
(lp744
I4
aI21
aI22
aI40
as(I14
I9
I48
tp745
(lp746
I21
as(I10
I9
I33
tp747
(lp748
I40
as(I16
I30
I5
tp749
(lp750
I36
as(I25
I12
I24
tp751
(lp752
I30
aI42
as(I19
I41
I47
tp753
(lp754
I41
as(I4
I33
I9
tp755
(lp756
I21
aI40
as(I3
I27
I29
tp757
(lp758
I35
as(I32
I1
I10
tp759
(lp760
I34
as(I49
I35
I46
tp761
(lp762
I47
as(I19
I37
I36
tp763
(lp764
I14
as(I46
I24
I49
tp765
(lp766
I43
as(I30
I34
I7
tp767
(lp768
I12
aI33
as(I25
I9
I22
tp769
(lp770
I9
aI48
as(I15
I33
I46
tp771
(lp772
I17
as(I17
I46
I47
tp773
(lp774
I46
as(I49
I1
I43
tp775
(lp776
I28
aI42
as(I3
I31
I44
tp777
(lp778
I31
as(I19
I41
I8
tp779
(lp780
I15
as(I16
I39
I16
tp781
(lp782
I14
aI18
aI22
aI27
as(I43
I35
I24
tp783
(lp784
I25
aI48
as(I39
I28
I3
tp785
(lp786
I10
aI48
as(I9
I25
I47
tp787
(lp788
I25
as(I28
I40
I8
tp789
(lp790
I1
as(I24
I33
I34
tp791
(lp792
I33
as(I31
I38
I11
tp793
(lp794
I19
as(I8
I26
I23
tp795
(lp796
I6
aI33
as(I33
I48
I22
tp797
(lp798
I48
as(I47
I14
I16
tp799
(lp800
I14
as(I39
I29
I14
tp801
(lp802
I35
as(I48
I33
I48
tp803
(lp804
I3
aI21
aI22
aI24
as(I49
I1
I15
tp805
(lp806
I8
as(I28
I5
I13
tp807
(lp808
I4
as(I19
I41
I27
tp809
(lp810
I43
aI45
as(I7
I2
I34
tp811
(lp812
I17
as(I4
I18
I22
tp813
(lp814
I16
as(I12
I3
I38
tp815
(lp816
I20
as(I11
I40
I36
tp817
(lp818
I5
as(I36
I20
I38
tp819
(lp820
I20
as(I2
I30
I17
tp821
(lp822
I34
as(I17
I20
I45
tp823
(lp824
I20
as(I25
I11
I47
tp825
(lp826
I15
as(I36
I20
I36
tp827
(lp828
I5
aI11
aI14
aI30
as(I5
I29
I4
tp829
(lp830
I9
aI10
as(I2
I41
I47
tp831
(lp832
I41
as(I10
I16
I32
tp833
(lp834
I18
as(I43
I44
I27
tp835
(lp836
I19
aI45
as(I45
I6
I12
tp837
(lp838
I7
as(I23
I43
I21
tp839
(lp840
I28
as(I45
I18
I43
tp841
(lp842
I28
aI49
as(I18
I42
I16
tp843
(lp844
I14
aI27
as(I6
I27
I49
tp845
(lp846
I43
as(I48
I46
I29
tp847
(lp848
I41
as(I34
I24
I10
tp849
(lp850
I3
as(I26
I44
I4
tp851
(lp852
I5
as(I14
I44
I36
tp853
(lp854
I5
aI11
aI30
as(I45
I22
I15
tp855
(lp856
I47
as(I35
I43
I5
tp857
(lp858
I28
as(I13
I16
I4
tp859
(lp860
I5
aI9
as(I9
I25
I6
tp861
(lp862
I23
as(I3
I29
I22
tp863
(lp864
I35
as(I26
I17
I34
tp865
(lp866
I17
as(I15
I13
I12
tp867
(lp868
I2
aI7
aI17
as(I26
I8
I15
tp869
(lp870
I8
as(I39
I29
I37
tp871
(lp872
I14
as(I41
I42
I41
tp873
(lp874
I10
aI29
aI31
aI47
as(I37
I47
I12
tp875
(lp876
I15
as(I44
I26
I8
tp877
(lp878
I1
as(I46
I38
I17
tp879
(lp880
I12
aI42
as(I24
I46
I34
tp881
(lp882
I17
as(I9
I10
I29
tp883
(lp884
I41
as(I19
I41
I46
tp885
(lp886
I47
as(I33
I15
I2
tp887
(lp888
I12
as(I11
I40
I13
tp889
(lp890
I40
as(I24
I34
I3
tp891
(lp892
I10
as(I24
I33
I25
tp893
(lp894
I23
as(I39
I11
I37
tp895
(lp896
I14
aI19
as(I2
I30
I8
tp897
(lp898
I1
as(I17
I20
I2
tp899
(lp900
I38
as(I42
I50
I43
tp901
(lp902
I27
aI49
as(I47
I7
I30
tp903
(lp904
I26
as(I28
I5
I40
tp905
(lp906
I13
as(I3
I12
I47
tp907
(lp908
I15
as(I28
I39
I37
tp909
(lp910
I20
as(I46
I48
I40
tp911
(lp912
I9
as(I45
I18
I28
tp913
(lp914
I5
as(I10
I34
I13
tp915
(lp916
I40
as(I6
I27
I26
tp917
(lp918
I7
as(I25
I11
I24
tp919
(lp920
I30
aI42
as(I46
I48
I41
tp921
(lp922
I10
aI29
as(I13
I50
I40
tp923
(lp924
I33
aI50
as(I35
I38
I3
tp925
(lp926
I39
as(I12
I37
I17
tp927
(lp928
I42
as(I35
I43
I28
tp929
(lp930
I43
as(I36
I14
I19
tp931
(lp932
I27
aI37
as(I20
I31
I39
tp933
(lp934
I29
aI32
as(I47
I37
I20
tp935
(lp936
I37
as(I49
I35
I14
tp937
(lp938
I35
as(I44
I7
I15
tp939
(lp940
I12
as(I23
I30
I8
tp941
(lp942
I11
as(I41
I36
I30
tp943
(lp944
I36
as(I19
I15
I18
tp945
(lp946
I45
as(I36
I41
I10
tp947
(lp948
I41
as(I17
I46
I15
tp949
(lp950
I47
as(I27
I21
I27
tp951
(lp952
I16
aI19
aI43
aI45
as(I14
I36
I18
tp953
(lp954
I32
as(I10
I32
I41
tp955
(lp956
I29
aI31
as(I15
I19
I20
tp957
(lp958
I37
aI38
as(I5
I21
I44
tp959
(lp960
I6
as(I11
I5
I28
tp961
(lp962
I5
as(I12
I25
I26
tp963
(lp964
I6
as(I42
I50
I18
tp965
(lp966
I49
as(I34
I30
I34
tp967
(lp968
I1
aI10
aI17
aI33
as(I22
I29
I18
tp969
(lp970
I32
as(I28
I5
I1
tp971
(lp972
I30
as(I11
I25
I19
tp973
(lp974
I37
as(I27
I3
I35
tp975
(lp976
I29
as(I24
I46
I43
tp977
(lp978
I49
as(I42
I41
I42
tp979
(lp980
I17
aI24
aI37
aI43
as(I22
I48
I9
tp981
(lp982
I4
aI21
as(I45
I20
I45
tp983
(lp984
I15
aI18
aI20
aI27
as(I23
I32
I23
tp985
(lp986
I1
aI6
aI25
as(I16
I30
I37
tp987
(lp988
I42
as(I10
I9
I22
tp989
(lp990
I9
as(I50
I31
I43
tp991
(lp992
I49
as(I16
I10
I39
tp993
(lp994
I3
as(I14
I47
I30
tp995
(lp996
I24
as(I44
I43
I31
tp997
(lp998
I49
aI50
as(I49
I1
I30
tp999
(lp1000
I1
as(I39
I29
I45
tp1001
(lp1002
I15
as(I35
I38
I37
tp1003
(lp1004
I19
aI20
as(I3
I27
I20
tp1005
(lp1006
I37
aI38
aI45
as(I45
I6
I44
tp1007
(lp1008
I6
as(I31
I50
I33
tp1009
(lp1010
I40
as(I43
I1
I25
tp1011
(lp1012
I23
as(I41
I36
I39
tp1013
(lp1014
I32
as(I34
I24
I42
tp1015
(lp1016
I24
as(I26
I44
I36
tp1017
(lp1018
I5
aI11
as(I24
I21
I48
tp1019
(lp1020
I21
aI22
as(I14
I36
I5
tp1021
(lp1022
I36
as(I38
I46
I40
tp1023
(lp1024
I50
as(I43
I35
I19
tp1025
(lp1026
I37
as(I28
I40
I23
tp1027
(lp1028
I33
as(I19
I41
I37
tp1029
(lp1030
I14
aI20
as(I7
I47
I15
tp1031
(lp1032
I47
as(I43
I23
I33
tp1033
(lp1034
I23
as(I1
I18
I27
tp1035
(lp1036
I16
as(I44
I14
I11
tp1037
(lp1038
I19
aI36
as(I40
I17
I50
tp1039
(lp1040
I46
aI49
as(I34
I10
I42
tp1041
(lp1042
I24
as(I13
I16
I49
tp1043
(lp1044
I18
as(I11
I39
I14
tp1045
(lp1046
I37
as(I48
I22
I39
tp1047
(lp1048
I29
as(I33
I15
I34
tp1049
(lp1050
I1
aI17
as(I31
I20
I15
tp1051
(lp1052
I45
as(I2
I41
I31
tp1053
(lp1054
I41
as(I23
I32
I39
tp1055
(lp1056
I32
as(I22
I48
I32
tp1057
(lp1058
I39
as(I11
I5
I37
tp1059
(lp1060
I14
as(I44
I26
I32
tp1061
(lp1062
I5
as(I17
I20
I34
tp1063
(lp1064
I33
as(I6
I45
I39
tp1065
(lp1066
I20
as(I5
I29
I31
tp1067
(lp1068
I41
as(I1
I49
I46
tp1069
(lp1070
I50
as(I40
I25
I33
tp1071
(lp1072
I23
aI34
as(I21
I8
I36
tp1073
(lp1074
I11
as(I18
I42
I5
tp1075
(lp1076
I28
as(I28
I39
I5
tp1077
(lp1078
I4
aI32
as(I38
I46
I19
tp1079
(lp1080
I37
as(I21
I5
I21
tp1081
(lp1082
I6
aI9
aI28
aI48
as(I41
I36
I44
tp1083
(lp1084
I11
aI32
as(I10
I32
I5
tp1085
(lp1086
I32
as(I50
I8
I11
tp1087
(lp1088
I8
as(I38
I6
I23
tp1089
(lp1090
I6
as(I9
I25
I24
tp1091
(lp1092
I25
as(I25
I9
I24
tp1093
(lp1094
I48
as(I26
I44
I31
tp1095
(lp1096
I44
as(I24
I21
I25
tp1097
(lp1098
I23
aI35
as(I21
I27
I21
tp1099
(lp1100
I6
aI9
aI28
aI48
as(I37
I47
I2
tp1101
(lp1102
I46
as(I41
I19
I38
tp1103
(lp1104
I19
as(I28
I34
I21
tp1105
(lp1106
I6
aI9
as(I42
I18
I37
tp1107
(lp1108
I14
aI19
aI20
as(I38
I46
I7
tp1109
(lp1110
I12
aI33
as(I26
I8
I6
tp1111
(lp1112
I21
aI23
aI44
as(I19
I36
I20
tp1113
(lp1114
I37
as(I5
I11
I14
tp1115
(lp1116
I37
as(I44
I14
I18
tp1117
(lp1118
I16
as(I41
I42
I34
tp1119
(lp1120
I17
as(I49
I1
I17
tp1121
(lp1122
I34
as(I44
I26
I19
tp1123
(lp1124
I38
as(I34
I10
I17
tp1125
(lp1126
I42
aI46
as(I21
I24
I9
tp1127
(lp1128
I22
as(I9
I10
I22
tp1129
(lp1130
I35
aI48
as(I20
I45
I2
tp1131
(lp1132
I12
as(I47
I42
I15
tp1133
(lp1134
I12
aI45
as(I24
I34
I10
tp1135
(lp1136
I34
as(I3
I31
I41
tp1137
(lp1138
I31
as(I39
I11
I44
tp1139
(lp1140
I11
as(I32
I10
I49
tp1141
(lp1142
I31
as(I7
I44
I7
tp1143
(lp1144
I12
aI26
aI33
aI38
as(I50
I13
I44
tp1145
(lp1146
I6
as(I17
I20
I27
tp1147
(lp1148
I45
as(I29
I3
I39
tp1149
(lp1150
I3
aI32
as(I8
I4
I34
tp1151
(lp1152
I10
as(I9
I14
I28
tp1153
(lp1154
I5
as(I10
I16
I18
tp1155
(lp1156
I16
as(I35
I38
I19
tp1157
(lp1158
I38
as(I43
I44
I21
tp1159
(lp1160
I6
as(I3
I27
I38
tp1161
(lp1162
I19
as(I38
I35
I37
tp1163
(lp1164
I14
as(I42
I41
I10
tp1165
(lp1166
I41
as(I10
I32
I44
tp1167
(lp1168
I32
as(I8
I21
I26
tp1169
(lp1170
I6
as(I49
I1
I24
tp1171
(lp1172
I30
as(I48
I46
I47
tp1173
(lp1174
I46
as(I50
I31
I40
tp1175
(lp1176
I9
aI33
as(I13
I50
I33
tp1177
(lp1178
I34
aI40
as(I5
I21
I5
tp1179
(lp1180
I4
aI28
aI32
aI36
as(I22
I27
I43
tp1181
(lp1182
I27
as(I48
I13
I26
tp1183
(lp1184
I13
as(I13
I16
I50
tp1185
(lp1186
I49
as(I13
I15
I38
tp1187
(lp1188
I20
as(I28
I34
I12
tp1189
(lp1190
I17
as(I3
I29
I4
tp1191
(lp1192
I9
as(I33
I24
I25
tp1193
(lp1194
I24
as(I19
I37
I19
tp1195
(lp1196
I11
aI27
aI37
aI38
as(I7
I44
I23
tp1197
(lp1198
I1
aI6
as(I5
I11
I37
tp1199
(lp1200
I19
as(I19
I15
I37
tp1201
(lp1202
I20
as(I21
I24
I30
tp1203
(lp1204
I24
as(I4
I18
I43
tp1205
(lp1206
I49
as(I16
I13
I40
tp1207
(lp1208
I13
as(I11
I40
I31
tp1209
(lp1210
I49
aI50
as(I32
I6
I11
tp1211
(lp1212
I44
as(I11
I5
I11
tp1213
(lp1214
I8
aI19
aI36
aI44
as(I9
I10
I31
tp1215
(lp1216
I41
as(I29
I5
I10
tp1217
(lp1218
I4
as(I42
I50
I25
tp1219
(lp1220
I47
as(I20
I45
I27
tp1221
(lp1222
I45
as(I10
I16
I5
tp1223
(lp1224
I32
aI36
as(I29
I39
I41
tp1225
(lp1226
I10
aI31
as(I39
I28
I44
tp1227
(lp1228
I6
aI11
as(I28
I39
I43
tp1229
(lp1230
I42
aI49
as(I31
I20
I47
tp1231
(lp1232
I15
as(I42
I41
I35
tp1233
(lp1234
I29
as(I45
I18
I14
tp1235
(lp1236
I16
as(I41
I2
I41
tp1237
(lp1238
I10
aI29
aI31
aI47
as(I10
I34
I3
tp1239
(lp1240
I48
as(I19
I41
I43
tp1241
(lp1242
I49
as(I18
I45
I39
tp1243
(lp1244
I20
as(I6
I45
I7
tp1245
(lp1246
I12
aI38
as(I5
I28
I21
tp1247
(lp1248
I28
as(I13
I50
I26
tp1249
(lp1250
I6
aI7
as(I38
I31
I41
tp1251
(lp1252
I31
as(I2
I41
I20
tp1253
(lp1254
I39
as(I18
I1
I45
tp1255
(lp1256
I15
aI27
as(I21
I8
I4
tp1257
(lp1258
I5
as(I3
I31
I40
tp1259
(lp1260
I50
as(I15
I13
I33
tp1261
(lp1262
I40
as(I32
I1
I28
tp1263
(lp1264
I8
as(I7
I44
I32
tp1265
(lp1266
I44
as(I50
I8
I43
tp1267
(lp1268
I28
as(I6
I32
I3
tp1269
(lp1270
I39
as(I17
I46
I25
tp1271
(lp1272
I47
as(I27
I6
I18
tp1273
(lp1274
I32
as(I15
I19
I38
tp1275
(lp1276
I19
as(I8
I50
I43
tp1277
(lp1278
I49
as(I3
I31
I21
tp1279
(lp1280
I6
as(I42
I18
I5
tp1281
(lp1282
I32
as(I19
I41
I44
tp1283
(lp1284
I31
as(I32
I10
I3
tp1285
(lp1286
I10
aI29
as(I28
I39
I48
tp1287
(lp1288
I3
as(I23
I26
I40
tp1289
(lp1290
I13
as(I25
I12
I2
tp1291
(lp1292
I12
as(I48
I33
I34
tp1293
(lp1294
I33
as(I17
I26
I40
tp1295
(lp1296
I13
as(I22
I29
I32
tp1297
(lp1298
I39
as(I12
I3
I20
tp1299
(lp1300
I39
as(I47
I42
I47
tp1301
(lp1302
I15
aI25
aI41
aI46
as(I20
I36
I7
tp1303
(lp1304
I26
as(I38
I35
I23
tp1305
(lp1306
I25
as(I35
I49
I25
tp1307
(lp1308
I47
as(I32
I6
I48
tp1309
(lp1310
I21
as(I24
I34
I42
tp1311
(lp1312
I17
as(I41
I2
I50
tp1313
(lp1314
I46
as(I50
I42
I25
tp1315
(lp1316
I24
as(I50
I13
I12
tp1317
(lp1318
I2
aI7
as(I10
I34
I42
tp1319
(lp1320
I17
as(I6
I45
I44
tp1321
(lp1322
I11
aI31
aI32
as(I5
I29
I22
tp1323
(lp1324
I35
as(I14
I47
I8
tp1325
(lp1326
I15
as(I4
I33
I12
tp1327
(lp1328
I7
as(I21
I5
I28
tp1329
(lp1330
I5
aI8
as(I30
I23
I6
tp1331
(lp1332
I23
as(I50
I8
I50
tp1333
(lp1334
I31
aI40
aI46
aI49
as(I6
I32
I26
tp1335
(lp1336
I13
aI30
as(I40
I25
I23
tp1337
(lp1338
I25
as(I17
I46
I34
tp1339
(lp1340
I10
aI33
as(I17
I20
I38
tp1341
(lp1342
I20
as(I12
I37
I42
tp1343
(lp1344
I37
as(I13
I15
I10
tp1345
(lp1346
I41
as(I13
I16
I18
tp1347
(lp1348
I16
as(I45
I20
I19
tp1349
(lp1350
I37
aI38
as(I9
I25
I40
tp1351
(lp1352
I33
aI50
as(I36
I19
I32
tp1353
(lp1354
I44
as(I15
I13
I26
tp1355
(lp1356
I13
as(I5
I11
I5
tp1357
(lp1358
I28
aI32
aI36
as(I44
I14
I29
tp1359
(lp1360
I35
as(I16
I30
I36
tp1361
(lp1362
I30
as(I17
I26
I17
tp1363
(lp1364
I12
aI34
aI42
aI46
as(I34
I30
I7
tp1365
(lp1366
I26
as(I36
I41
I35
tp1367
(lp1368
I25
aI29
as(I4
I8
I13
tp1369
(lp1370
I26
as(I34
I10
I24
tp1371
(lp1372
I48
as(I31
I20
I50
tp1373
(lp1374
I49
as(I12
I3
I45
tp1375
(lp1376
I20
as(I20
I36
I30
tp1377
(lp1378
I36
as(I26
I23
I13
tp1379
(lp1380
I40
as(I30
I16
I35
tp1381
(lp1382
I22
as(I46
I24
I3
tp1383
(lp1384
I48
as(I11
I5
I43
tp1385
(lp1386
I28
as(I40
I11
I4
tp1387
(lp1388
I5
as(I49
I4
I50
tp1389
(lp1390
I31
aI40
as(I25
I11
I36
tp1391
(lp1392
I11
as(I44
I43
I50
tp1393
(lp1394
I49
as(I9
I14
I21
tp1395
(lp1396
I28
aI48
as(I24
I46
I50
tp1397
(lp1398
I46
as(I18
I1
I27
tp1399
(lp1400
I19
as(I4
I33
I21
tp1401
(lp1402
I6
as(I33
I24
I1
tp1403
(lp1404
I30
as(I43
I44
I19
tp1405
(lp1406
I11
as(I6
I27
I44
tp1407
(lp1408
I11
aI31
aI32
as(I25
I9
I10
tp1409
(lp1410
I4
as(I50
I31
I49
tp1411
(lp1412
I18
aI31
as(I26
I44
I1
tp1413
(lp1414
I8
aI23
as(I16
I10
I14
tp1415
(lp1416
I35
aI36
as(I25
I40
I35
tp1417
(lp1418
I22
as(I35
I43
I14
tp1419
(lp1420
I16
aI36
aI37
as(I36
I14
I5
tp1421
(lp1422
I28
aI32
as(I3
I31
I39
tp1423
(lp1424
I29
aI32
as(I37
I47
I20
tp1425
(lp1426
I39
aI45
as(I31
I38
I47
tp1427
(lp1428
I46
as(I8
I26
I11
tp1429
(lp1430
I36
aI44
as(I5
I11
I28
tp1431
(lp1432
I8
aI21
aI43
as(I44
I14
I36
tp1433
(lp1434
I14
as(I2
I15
I12
tp1435
(lp1436
I15
aI17
as(I40
I28
I26
tp1437
(lp1438
I6
as(I44
I26
I13
tp1439
(lp1440
I26
as(I4
I8
I36
tp1441
(lp1442
I11
aI30
as(I40
I17
I13
tp1443
(lp1444
I2
as(I34
I10
I7
tp1445
(lp1446
I26
as(I27
I21
I9
tp1447
(lp1448
I21
as(I21
I24
I23
tp1449
(lp1450
I1
aI25
as(I4
I18
I50
tp1451
(lp1452
I49
as(I43
I35
I42
tp1453
(lp1454
I24
aI37
as(I8
I50
I11
tp1455
(lp1456
I44
as(I11
I40
I8
tp1457
(lp1458
I1
as(I36
I19
I27
tp1459
(lp1460
I19
as(I2
I30
I13
tp1461
(lp1462
I4
aI26
as(I37
I47
I39
tp1463
(lp1464
I29
as(I25
I12
I34
tp1465
(lp1466
I17
as(I50
I31
I33
tp1467
(lp1468
I23
aI34
as(I28
I39
I18
tp1469
(lp1470
I32
as(I16
I30
I16
tp1471
(lp1472
I14
aI18
aI22
aI27
as(I1
I49
I11
tp1473
(lp1474
I44
as(I29
I39
I48
tp1475
(lp1476
I3
as(I28
I39
I32
tp1477
(lp1478
I39
as(I20
I36
I39
tp1479
(lp1480
I32
as(I42
I41
I24
tp1481
(lp1482
I25
as(I23
I43
I49
tp1483
(lp1484
I43
as(I47
I37
I46
tp1485
(lp1486
I2
aI17
as(I30
I16
I24
tp1487
(lp1488
I25
aI42
aI48
as(I6
I27
I21
tp1489
(lp1490
I9
aI28
aI48
as(I10
I9
I4
tp1491
(lp1492
I5
aI9
aI13
as(I50
I31
I46
tp1493
(lp1494
I17
aI47
as(I5
I28
I34
tp1495
(lp1496
I1
as(I38
I31
I50
tp1497
(lp1498
I31
aI49
as(I18
I42
I27
tp1499
(lp1500
I19
aI43
as(I2
I41
I29
tp1501
(lp1502
I41
as(I35
I43
I25
tp1503
(lp1504
I24
as(I13
I16
I32
tp1505
(lp1506
I18
as(I39
I28
I20
tp1507
(lp1508
I37
as(I3
I29
I10
tp1509
(lp1510
I4
aI41
as(I16
I30
I24
tp1511
(lp1512
I30
as(I15
I13
I40
tp1513
(lp1514
I13
as(I8
I4
I21
tp1515
(lp1516
I9
as(I48
I46
I24
tp1517
(lp1518
I25
aI42
as(I5
I11
I43
tp1519
(lp1520
I27
as(I47
I14
I45
tp1521
(lp1522
I20
as(I23
I30
I7
tp1523
(lp1524
I26
as(I22
I45
I37
tp1525
(lp1526
I20
as(I40
I28
I49
tp1527
(lp1528
I43
as(I16
I13
I5
tp1529
(lp1530
I4
as(I17
I46
I2
tp1531
(lp1532
I46
as(I31
I3
I39
tp1533
(lp1534
I3
aI29
as(I13
I48
I28
tp1535
(lp1536
I21
as(I21
I27
I44
tp1537
(lp1538
I11
as(I1
I32
I15
tp1539
(lp1540
I45
as(I30
I34
I12
tp1541
(lp1542
I17
as(I2
I30
I36
tp1543
(lp1544
I30
as(I7
I47
I33
tp1545
(lp1546
I23
aI34
as(I5
I21
I22
tp1547
(lp1548
I48
as(I47
I7
I2
tp1549
(lp1550
I12
aI38
as(I49
I1
I40
tp1551
(lp1552
I33
as(I22
I29
I41
tp1553
(lp1554
I29
as(I12
I3
I13
tp1555
(lp1556
I4
as(I23
I32
I29
tp1557
(lp1558
I39
as(I42
I41
I49
tp1559
(lp1560
I31
aI50
as(I23
I32
I49
tp1561
(lp1562
I18
as(I36
I20
I11
tp1563
(lp1564
I8
aI19
as(I22
I48
I18
tp1565
(lp1566
I32
as(I10
I34
I17
tp1567
(lp1568
I34
as(I28
I34
I10
tp1569
(lp1570
I34
as(I40
I11
I36
tp1571
(lp1572
I11
as(I49
I4
I18
tp1573
(lp1574
I32
as(I6
I45
I21
tp1575
(lp1576
I28
as(I16
I10
I32
tp1577
(lp1578
I39
as(I13
I50
I4
tp1579
(lp1580
I9
aI10
as(I44
I43
I18
tp1581
(lp1582
I16
aI49
as(I43
I23
I31
tp1583
(lp1584
I44
as(I49
I35
I42
tp1585
(lp1586
I24
as(I22
I45
I27
tp1587
(lp1588
I45
as(I7
I44
I50
tp1589
(lp1590
I31
as(I8
I4
I9
tp1591
(lp1592
I4
as(I44
I7
I13
tp1593
(lp1594
I40
as(I23
I30
I44
tp1595
(lp1596
I11
as(I6
I32
I21
tp1597
(lp1598
I9
aI28
aI48
as(I40
I28
I40
tp1599
(lp1600
I9
aI13
aI33
aI50
as(I34
I24
I47
tp1601
(lp1602
I25
as(I50
I31
I17
tp1603
(lp1604
I42
as(I17
I46
I43
tp1605
(lp1606
I49
as(I27
I6
I11
tp1607
(lp1608
I44
as(I4
I49
I46
tp1609
(lp1610
I50
as(I38
I6
I39
tp1611
(lp1612
I32
as(I13
I15
I1
tp1613
(lp1614
I8
as(I43
I35
I28
tp1615
(lp1616
I21
as(I36
I14
I37
tp1617
(lp1618
I14
as(I9
I25
I35
tp1619
(lp1620
I25
as(I36
I14
I42
tp1621
(lp1622
I37
as(I42
I47
I12
tp1623
(lp1624
I2
aI15
as(I19
I36
I38
tp1625
(lp1626
I20
as(I33
I48
I10
tp1627
(lp1628
I3
as(I47
I14
I20
tp1629
(lp1630
I37
as(I39
I29
I10
tp1631
(lp1632
I41
as(I41
I42
I20
tp1633
(lp1634
I37
as(I1
I43
I30
tp1635
(lp1636
I24
aI36
as(I4
I8
I4
tp1637
(lp1638
I5
aI9
aI10
aI13
as(I38
I46
I50
tp1639
(lp1640
I46
as(I29
I39
I14
tp1641
(lp1642
I37
as(I12
I25
I12
tp1643
(lp1644
I2
aI7
aI15
aI17
as(I11
I39
I19
tp1645
(lp1646
I27
aI37
aI38
as(I12
I3
I34
tp1647
(lp1648
I10
as(I38
I35
I25
tp1649
(lp1650
I35
as(I41
I2
I4
tp1651
(lp1652
I13
as(I30
I16
I42
tp1653
(lp1654
I37
aI43
as(I50
I13
I2
tp1655
(lp1656
I12
aI13
as(I49
I4
I43
tp1657
(lp1658
I28
as(I1
I43
I17
tp1659
(lp1660
I42
as(I27
I22
I37
tp1661
(lp1662
I14
as(I1
I49
I43
tp1663
(lp1664
I49
as(I18
I1
I16
tp1665
(lp1666
I14
as(I27
I3
I21
tp1667
(lp1668
I48
as(I6
I38
I13
tp1669
(lp1670
I2
as(I49
I35
I49
tp1671
(lp1672
I18
aI31
aI43
aI50
as(I23
I43
I17
tp1673
(lp1674
I42
as(I45
I18
I39
tp1675
(lp1676
I32
as(I18
I42
I20
tp1677
(lp1678
I37
as(I6
I38
I23
tp1679
(lp1680
I33
as(I48
I46
I25
tp1681
(lp1682
I47
as(I19
I41
I38
tp1683
(lp1684
I2
aI20
as(I15
I33
I25
tp1685
(lp1686
I23
as(I44
I7
I36
tp1687
(lp1688
I30
as(I24
I21
I28
tp1689
(lp1690
I21
as(I43
I1
I8
tp1691
(lp1692
I1
as(I38
I31
I18
tp1693
(lp1694
I49
as(I14
I44
I32
tp1695
(lp1696
I44
as(I16
I39
I37
tp1697
(lp1698
I20
as(I16
I13
I38
tp1699
(lp1700
I2
as(I37
I19
I38
tp1701
(lp1702
I19
as(I28
I34
I30
tp1703
(lp1704
I1
as(I26
I17
I46
tp1705
(lp1706
I17
as(I26
I8
I11
tp1707
(lp1708
I8
as(I42
I47
I37
tp1709
(lp1710
I14
as(I12
I25
I47
tp1711
(lp1712
I25
as(I31
I50
I31
tp1713
(lp1714
I41
aI44
aI49
aI50
as(I49
I1
I8
tp1715
(lp1716
I1
as(I33
I4
I7
tp1717
(lp1718
I12
aI26
as(I4
I18
I5
tp1719
(lp1720
I28
aI32
aI36
as(I48
I22
I3
tp1721
(lp1722
I10
aI29
aI39
as(I43
I35
I37
tp1723
(lp1724
I14
as(I8
I50
I18
tp1725
(lp1726
I49
as(I11
I40
I49
tp1727
(lp1728
I50
as(I32
I6
I21
tp1729
(lp1730
I6
as(I24
I34
I7
tp1731
(lp1732
I33
as(I18
I4
I9
tp1733
(lp1734
I4
as(I19
I41
I19
tp1735
(lp1736
I11
aI27
aI37
aI38
as(I2
I30
I4
tp1737
(lp1738
I5
as(I39
I16
I14
tp1739
(lp1740
I16
as(I37
I47
I46
tp1741
(lp1742
I47
as(I29
I3
I44
tp1743
(lp1744
I32
as(I1
I18
I45
tp1745
(lp1746
I18
aI27
as(I42
I50
I47
tp1747
(lp1748
I41
aI46
as(I22
I29
I9
tp1749
(lp1750
I4
as(I28
I5
I44
tp1751
(lp1752
I32
as(I35
I38
I22
tp1753
(lp1754
I16
as(I25
I12
I1
tp1755
(lp1756
I34
as(I39
I16
I37
tp1757
(lp1758
I14
as(I3
I27
I35
tp1759
(lp1760
I22
as(I30
I2
I46
tp1761
(lp1762
I2
as(I46
I24
I41
tp1763
(lp1764
I10
as(I42
I41
I17
tp1765
(lp1766
I12
aI34
aI46
as(I26
I44
I30
tp1767
(lp1768
I1
aI36
as(I34
I24
I25
tp1769
(lp1770
I24
as(I46
I17
I49
tp1771
(lp1772
I43
as(I11
I25
I14
tp1773
(lp1774
I35
as(I37
I12
I37
tp1775
(lp1776
I19
aI20
aI42
as(I14
I44
I27
tp1777
(lp1778
I19
as(I35
I43
I16
tp1779
(lp1780
I18
aI27
as(I47
I37
I38
tp1781
(lp1782
I19
as(I9
I7
I4
tp1783
(lp1784
I10
aI13
as(I20
I31
I27
tp1785
(lp1786
I43
as(I8
I4
I28
tp1787
(lp1788
I5
aI21
as(I31
I50
I4
tp1789
(lp1790
I9
as(I18
I42
I45
tp1791
(lp1792
I20
aI27
as(I19
I15
I46
tp1793
(lp1794
I47
as(I16
I13
I14
tp1795
(lp1796
I36
as(I24
I21
I43
tp1797
(lp1798
I28
as(I14
I36
I30
tp1799
(lp1800
I36
as(I7
I2
I12
tp1801
(lp1802
I2
aI15
aI17
as(I13
I15
I33
tp1803
(lp1804
I7
as(I18
I4
I28
tp1805
(lp1806
I5
as(I11
I40
I26
tp1807
(lp1808
I13
as(I42
I18
I27
tp1809
(lp1810
I16
aI45
as(I15
I19
I28
tp1811
(lp1812
I43
as(I39
I11
I8
tp1813
(lp1814
I11
as(I32
I10
I21
tp1815
(lp1816
I9
as(I11
I5
I16
tp1817
(lp1818
I18
as(I37
I47
I45
tp1819
(lp1820
I15
as(I33
I48
I42
tp1821
(lp1822
I24
as(I1
I18
I6
tp1823
(lp1824
I44
as(I27
I22
I19
tp1825
(lp1826
I37
as(I27
I3
I39
tp1827
(lp1828
I3
aI29
as(I43
I44
I49
tp1829
(lp1830
I18
aI31
aI50
as(I12
I3
I2
tp1831
(lp1832
I13
aI38
as(I13
I48
I6
tp1833
(lp1834
I21
as(I31
I20
I42
tp1835
(lp1836
I37
as(I42
I50
I46
tp1837
(lp1838
I47
aI50
as(I8
I21
I6
tp1839
(lp1840
I21
as(I6
I27
I7
tp1841
(lp1842
I38
as(I6
I45
I26
tp1843
(lp1844
I7
as(I11
I25
I37
tp1845
(lp1846
I14
as(I38
I31
I44
tp1847
(lp1848
I31
as(I44
I43
I27
tp1849
(lp1850
I43
as(I35
I38
I33
tp1851
(lp1852
I7
as(I21
I8
I11
tp1853
(lp1854
I8
as(I46
I48
I10
tp1855
(lp1856
I3
as(I15
I13
I38
tp1857
(lp1858
I2
as(I45
I6
I32
tp1859
(lp1860
I44
as(I46
I24
I26
tp1861
(lp1862
I30
as(I50
I8
I44
tp1863
(lp1864
I11
as(I30
I34
I26
tp1865
(lp1866
I6
aI7
as(I36
I41
I31
tp1867
(lp1868
I41
as(I40
I11
I49
tp1869
(lp1870
I31
as(I31
I3
I49
tp1871
(lp1872
I18
as(I25
I40
I24
tp1873
(lp1874
I48
as(I39
I11
I19
tp1875
(lp1876
I11
as(I8
I26
I34
tp1877
(lp1878
I33
as(I33
I48
I3
tp1879
(lp1880
I48
as(I39
I28
I39
tp1881
(lp1882
I3
aI20
aI29
aI32
as(I2
I41
I34
tp1883
(lp1884
I10
as(I22
I29
I39
tp1885
(lp1886
I29
as(I40
I11
I34
tp1887
(lp1888
I1
as(I48
I22
I35
tp1889
(lp1890
I22
as(I33
I15
I38
tp1891
(lp1892
I2
as(I24
I46
I30
tp1893
(lp1894
I1
aI26
as(I20
I17
I27
tp1895
(lp1896
I43
as(I41
I2
I13
tp1897
(lp1898
I2
as(I10
I9
I35
tp1899
(lp1900
I22
as(I37
I47
I14
tp1901
(lp1902
I35
as(I46
I38
I19
tp1903
(lp1904
I38
as(I49
I4
I32
tp1905
(lp1906
I5
as(I46
I24
I12
tp1907
(lp1908
I17
as(I5
I28
I9
tp1909
(lp1910
I21
as(I34
I28
I43
tp1911
(lp1912
I28
as(I44
I43
I32
tp1913
(lp1914
I5
aI18
as(I1
I49
I34
tp1915
(lp1916
I10
aI17
aI33
as(I32
I23
I30
tp1917
(lp1918
I1
as(I41
I2
I47
tp1919
(lp1920
I15
aI46
as(I43
I44
I8
tp1921
(lp1922
I11
as(I4
I33
I7
tp1923
(lp1924
I33
as(I3
I27
I3
tp1925
(lp1926
I29
aI39
aI48
as(I35
I49
I47
tp1927
(lp1928
I46
as(I2
I7
I17
tp1929
(lp1930
I12
aI34
as(I23
I30
I34
tp1931
(lp1932
I1
as(I26
I44
I19
tp1933
(lp1934
I11
as(I24
I21
I5
tp1935
(lp1936
I28
as(I38
I31
I27
tp1937
(lp1938
I43
as(I16
I10
I41
tp1939
(lp1940
I10
as(I21
I27
I9
tp1941
(lp1942
I22
as(I20
I45
I12
tp1943
(lp1944
I15
as(I28
I34
I17
tp1945
(lp1946
I34
as(I19
I36
I16
tp1947
(lp1948
I14
as(I7
I47
I26
tp1949
(lp1950
I6
as(I33
I48
I24
tp1951
(lp1952
I48
as(I39
I29
I24
tp1953
(lp1954
I25
as(I48
I33
I6
tp1955
(lp1956
I23
aI26
as(I17
I26
I12
tp1957
(lp1958
I2
aI7
as(I34
I30
I12
tp1959
(lp1960
I7
as(I44
I26
I31
tp1961
(lp1962
I50
as(I4
I8
I10
tp1963
(lp1964
I34
aI41
as(I16
I30
I14
tp1965
(lp1966
I35
aI36
aI37
as(I11
I39
I29
tp1967
(lp1968
I39
as(I33
I15
I13
tp1969
(lp1970
I2
as(I49
I1
I49
tp1971
(lp1972
I18
aI31
aI43
aI50
as(I32
I6
I44
tp1973
(lp1974
I6
as(I26
I23
I8
tp1975
(lp1976
I1
as(I45
I22
I35
tp1977
(lp1978
I22
as(I10
I34
I1
tp1979
(lp1980
I34
as(I47
I7
I45
tp1981
(lp1982
I20
as(I5
I29
I10
tp1983
(lp1984
I3
aI41
as(I14
I47
I36
tp1985
(lp1986
I11
aI30
as(I9
I14
I24
tp1987
(lp1988
I25
as(I35
I38
I35
tp1989
(lp1990
I14
aI22
aI25
aI29
as(I18
I1
I30
tp1991
(lp1992
I1
as(I27
I6
I9
tp1993
(lp1994
I21
as(I4
I33
I40
tp1995
(lp1996
I33
as(I45
I6
I18
tp1997
(lp1998
I32
aI49
as(I35
I49
I39
tp1999
(lp2000
I32
as(I48
I46
I22
tp2001
(lp2002
I9
aI35
as(I15
I33
I15
tp2003
(lp2004
I8
aI12
aI45
aI47
as(I13
I48
I13
tp2005
(lp2006
I4
aI26
aI40
as(I43
I1
I6
tp2007
(lp2008
I23
as(I17
I40
I26
tp2009
(lp2010
I13
as(I14
I44
I18
tp2011
(lp2012
I32
as(I26
I17
I30
tp2013
(lp2014
I1
aI24
as(I25
I40
I46
tp2015
(lp2016
I2
aI50
as(I19
I37
I38
tp2017
(lp2018
I2
aI20
as(I48
I13
I6
tp2019
(lp2020
I26
as(I13
I16
I14
tp2021
(lp2022
I16
as(I37
I19
I20
tp2023
(lp2024
I38
aI39
aI45
as(I28
I34
I8
tp2025
(lp2026
I1
aI15
as(I3
I29
I24
tp2027
(lp2028
I25
as(I47
I37
I25
tp2029
(lp2030
I24
aI35
as(I8
I4
I11
tp2031
(lp2032
I36
aI44
as(I30
I23
I48
tp2033
(lp2034
I21
as(I21
I5
I44
tp2035
(lp2036
I11
aI32
as(I48
I13
I30
tp2037
(lp2038
I26
as(I39
I29
I47
tp2039
(lp2040
I41
as(I2
I15
I7
tp2041
(lp2042
I12
as(I6
I32
I44
tp2043
(lp2044
I11
aI31
aI32
as(I44
I26
I6
tp2045
(lp2046
I23
aI26
as(I27
I21
I22
tp2047
(lp2048
I9
aI48
as(I21
I24
I26
tp2049
(lp2050
I30
as(I9
I10
I35
tp2051
(lp2052
I29
as(I7
I9
I4
tp2053
(lp2054
I9
as(I15
I19
I27
tp2055
(lp2056
I19
as(I36
I19
I30
tp2057
(lp2058
I1
as(I4
I49
I2
tp2059
(lp2060
I46
as(I32
I10
I28
tp2061
(lp2062
I21
as(I17
I20
I12
tp2063
(lp2064
I2
aI7
aI15
as(I29
I5
I14
tp2065
(lp2066
I36
as(I47
I7
I20
tp2067
(lp2068
I38
as(I46
I17
I25
tp2069
(lp2070
I24
as(I28
I5
I30
tp2071
(lp2072
I36
as(I47
I42
I50
tp2073
(lp2074
I49
as(I42
I41
I31
tp2075
(lp2076
I41
as(I23
I43
I42
tp2077
(lp2078
I43
as(I22
I48
I4
tp2079
(lp2080
I10
as(I18
I45
I43
tp2081
(lp2082
I27
aI42
as(I6
I27
I16
tp2083
(lp2084
I27
as(I48
I46
I50
tp2085
(lp2086
I46
as(I43
I1
I36
tp2087
(lp2088
I30
as(I16
I10
I18
tp2089
(lp2090
I32
aI49
as(I43
I1
I45
tp2091
(lp2092
I15
as(I5
I21
I48
tp2093
(lp2094
I21
as(I14
I44
I5
tp2095
(lp2096
I32
as(I16
I30
I19
tp2097
(lp2098
I11
as(I43
I23
I24
tp2099
(lp2100
I25
aI30
as(I9
I7
I26
tp2101
(lp2102
I7
as(I36
I14
I25
tp2103
(lp2104
I35
as(I20
I31
I41
tp2105
(lp2106
I31
as(I15
I13
I45
tp2107
(lp2108
I20
as(I26
I8
I44
tp2109
(lp2110
I11
as(I49
I35
I24
tp2111
(lp2112
I25
as(I30
I23
I25
tp2113
(lp2114
I23
as(I23
I26
I25
tp2115
(lp2116
I24
as(I15
I2
I27
tp2117
(lp2118
I19
as(I41
I19
I47
tp2119
(lp2120
I15
aI46
as(I30
I34
I17
tp2121
(lp2122
I34
as(I40
I25
I50
tp2123
(lp2124
I31
aI46
as(I46
I24
I42
tp2125
(lp2126
I24
as(I27
I21
I45
tp2127
(lp2128
I15
as(I1
I32
I34
tp2129
(lp2130
I10
as(I7
I2
I26
tp2131
(lp2132
I13
as(I13
I15
I47
tp2133
(lp2134
I15
as(I43
I35
I14
tp2135
(lp2136
I35
as(I8
I50
I47
tp2137
(lp2138
I41
aI46
as(I28
I40
I34
tp2139
(lp2140
I33
as(I33
I24
I30
tp2141
(lp2142
I24
as(I4
I49
I43
tp2143
(lp2144
I49
as(I1
I18
I8
tp2145
(lp2146
I11
aI15
aI28
as(I6
I38
I37
tp2147
(lp2148
I20
as(I27
I6
I27
tp2149
(lp2150
I16
aI19
aI43
aI45
as(I8
I26
I6
tp2151
(lp2152
I26
as(I20
I45
I38
tp2153
(lp2154
I2
aI19
as(I47
I42
I43
tp2155
(lp2156
I42
as(I24
I46
I17
tp2157
(lp2158
I12
aI46
as(I38
I35
I11
tp2159
(lp2160
I36
as(I20
I17
I12
tp2161
(lp2162
I17
as(I36
I20
I16
tp2163
(lp2164
I18
as(I10
I34
I46
tp2165
(lp2166
I17
as(I8
I21
I48
tp2167
(lp2168
I21
as(I46
I38
I26
tp2169
(lp2170
I7
as(I8
I4
I36
tp2171
(lp2172
I5
as(I5
I28
I6
tp2173
(lp2174
I21
as(I17
I46
I10
tp2175
(lp2176
I41
as(I48
I13
I48
tp2177
(lp2178
I3
aI21
aI22
aI24
as(I1
I32
I8
tp2179
(lp2180
I11
aI15
aI28
as(I27
I6
I32
tp2181
(lp2182
I44
as(I19
I36
I24
tp2183
(lp2184
I30
as(I6
I38
I2
tp2185
(lp2186
I38
as(I21
I5
I32
tp2187
(lp2188
I5
as(I49
I35
I47
tp2189
(lp2190
I25
as(I7
I47
I2
tp2191
(lp2192
I46
as(I45
I18
I49
tp2193
(lp2194
I18
as(I38
I6
I2
tp2195
(lp2196
I12
aI13
as(I6
I32
I30
tp2197
(lp2198
I36
as(I25
I9
I23
tp2199
(lp2200
I6
aI33
as(I19
I41
I35
tp2201
(lp2202
I29
as(I15
I33
I47
tp2203
(lp2204
I25
aI46
as(I12
I37
I46
tp2205
(lp2206
I17
as(I27
I6
I7
tp2207
(lp2208
I26
as(I43
I35
I25
tp2209
(lp2210
I35
as(I28
I34
I40
tp2211
(lp2212
I33
as(I36
I19
I44
tp2213
(lp2214
I11
as(I18
I4
I31
tp2215
(lp2216
I41
as(I26
I8
I21
tp2217
(lp2218
I28
as(I33
I48
I17
tp2219
(lp2220
I42
as(I39
I29
I15
tp2221
(lp2222
I47
as(I41
I42
I31
tp2223
(lp2224
I49
aI50
as(I2
I15
I17
tp2225
(lp2226
I12
aI46
as(I4
I8
I1
tp2227
(lp2228
I8
as(I40
I17
I40
tp2229
(lp2230
I13
aI33
aI50
as(I29
I39
I3
tp2231
(lp2232
I10
aI39
as(I33
I4
I21
tp2233
(lp2234
I9
as(I11
I39
I20
tp2235
(lp2236
I39
as(I12
I3
I41
tp2237
(lp2238
I10
as(I20
I36
I26
tp2239
(lp2240
I30
as(I27
I6
I48
tp2241
(lp2242
I21
as(I32
I6
I39
tp2243
(lp2244
I3
as(I36
I20
I39
tp2245
(lp2246
I20
as(I41
I2
I31
tp2247
(lp2248
I49
aI50
as(I45
I20
I12
tp2249
(lp2250
I2
as(I22
I45
I14
tp2251
(lp2252
I16
aI37
as(I14
I9
I40
tp2253
(lp2254
I9
as(I6
I45
I49
tp2255
(lp2256
I18
as(I5
I29
I5
tp2257
(lp2258
I4
aI28
aI32
aI36
as(I2
I41
I46
tp2259
(lp2260
I17
aI47
aI50
as(I15
I2
I47
tp2261
(lp2262
I46
as(I32
I23
I44
tp2263
(lp2264
I6
aI11
aI31
as(I18
I1
I23
tp2265
(lp2266
I1
as(I28
I39
I15
tp2267
(lp2268
I45
as(I45
I6
I11
tp2269
(lp2270
I44
as(I32
I1
I34
tp2271
(lp2272
I1
as(I29
I39
I4
tp2273
(lp2274
I5
as(I50
I8
I1
tp2275
(lp2276
I8
as(I41
I19
I29
tp2277
(lp2278
I35
aI39
as(I6
I27
I48
tp2279
(lp2280
I22
as(I25
I9
I14
tp2281
(lp2282
I16
as(I39
I28
I37
tp2283
(lp2284
I42
as(I26
I44
I5
tp2285
(lp2286
I32
as(I24
I21
I23
tp2287
(lp2288
I6
as(I14
I44
I37
tp2289
(lp2290
I19
aI20
as(I12
I37
I7
tp2291
(lp2292
I38
as(I31
I38
I19
tp2293
(lp2294
I38
as(I23
I32
I31
tp2295
(lp2296
I49
as(I8
I26
I15
tp2297
(lp2298
I12
as(I31
I50
I18
tp2299
(lp2300
I49
as(I47
I14
I8
tp2301
(lp2302
I11
as(I6
I38
I11
tp2303
(lp2304
I19
as(I41
I36
I8
tp2305
(lp2306
I11
as(I4
I49
I28
tp2307
(lp2308
I43
as(I33
I4
I10
tp2309
(lp2310
I4
as(I48
I22
I4
tp2311
(lp2312
I9
as(I18
I4
I14
tp2313
(lp2314
I36
as(I8
I50
I15
tp2315
(lp2316
I45
aI47
as(I32
I6
I30
tp2317
(lp2318
I26
as(I26
I23
I26
tp2319
(lp2320
I6
aI7
aI13
aI30
as(I24
I33
I24
tp2321
(lp2322
I25
aI30
aI42
aI48
as(I20
I45
I43
tp2323
(lp2324
I27
as(I32
I10
I39
tp2325
(lp2326
I3
aI29
as(I11
I5
I6
tp2327
(lp2328
I21
as(I37
I47
I35
tp2329
(lp2330
I25
aI29
as(I46
I38
I40
tp2331
(lp2332
I13
as(I29
I3
I41
tp2333
(lp2334
I10
aI31
as(I34
I28
I4
tp2335
(lp2336
I5
aI9
as(I28
I5
I6
tp2337
(lp2338
I44
as(I29
I3
I32
tp2339
(lp2340
I5
aI39
as(I1
I49
I15
tp2341
(lp2342
I45
as(I30
I16
I36
tp2343
(lp2344
I5
aI11
aI14
as(I45
I22
I27
tp2345
(lp2346
I16
as(I24
I46
I49
tp2347
(lp2348
I50
as(I22
I27
I24
tp2349
(lp2350
I42
as(I18
I45
I16
tp2351
(lp2352
I14
aI27
as(I25
I11
I25
tp2353
(lp2354
I23
aI24
aI35
aI47
as(I16
I10
I29
tp2355
(lp2356
I3
aI41
as(I46
I38
I2
tp2357
(lp2358
I12
aI13
aI38
as(I35
I43
I29
tp2359
(lp2360
I41
as(I36
I14
I16
tp2361
(lp2362
I14
as(I49
I4
I49
tp2363
(lp2364
I18
aI31
aI43
aI50
as(I3
I29
I14
tp2365
(lp2366
I35
as(I15
I2
I12
tp2367
(lp2368
I2
aI7
aI17
as(I22
I45
I15
tp2369
(lp2370
I45
as(I30
I23
I34
tp2371
(lp2372
I33
as(I23
I30
I11
tp2373
(lp2374
I36
as(I19
I15
I19
tp2375
(lp2376
I11
aI27
aI37
aI38
as(I36
I20
I14
tp2377
(lp2378
I16
aI37
as(I46
I38
I13
tp2379
(lp2380
I2
aI26
as(I16
I13
I16
tp2381
(lp2382
I14
aI18
aI22
aI27
as(I31
I3
I35
tp2383
(lp2384
I29
as(I1
I43
I34
tp2385
(lp2386
I17
as(I7
I9
I26
tp2387
(lp2388
I6
aI13
as(I42
I18
I16
tp2389
(lp2390
I18
as(I24
I33
I1
tp2391
(lp2392
I23
aI34
as(I45
I22
I14
tp2393
(lp2394
I16
aI35
as(I1
I18
I1
tp2395
(lp2396
I8
aI23
aI30
as(I23
I43
I34
tp2397
(lp2398
I17
as(I49
I1
I44
tp2399
(lp2400
I11
as(I16
I10
I48
tp2401
(lp2402
I3
as(I44
I7
I39
tp2403
(lp2404
I20
as(I40
I11
I33
tp2405
(lp2406
I7
aI23
aI34
as(I29
I39
I35
tp2407
(lp2408
I14
aI22
as(I3
I12
I7
tp2409
(lp2410
I12
as(I27
I3
I32
tp2411
(lp2412
I39
as(I31
I20
I37
tp2413
(lp2414
I20
as(I22
I48
I22
tp2415
(lp2416
I9
aI16
aI35
aI48
as(I16
I10
I36
tp2417
(lp2418
I5
as(I17
I40
I49
tp2419
(lp2420
I50
as(I14
I47
I29
tp2421
(lp2422
I41
as(I35
I38
I36
tp2423
(lp2424
I11
as(I3
I29
I37
tp2425
(lp2426
I14
as(I45
I6
I43
tp2427
(lp2428
I28
as(I49
I35
I22
tp2429
(lp2430
I35
as(I30
I23
I11
tp2431
(lp2432
I8
as(I31
I50
I32
tp2433
(lp2434
I18
as(I50
I8
I33
tp2435
(lp2436
I34
as(I18
I42
I49
tp2437
(lp2438
I43
aI50
as(I6
I32
I9
tp2439
(lp2440
I4
as(I46
I17
I7
tp2441
(lp2442
I12
as(I32
I23
I32
tp2443
(lp2444
I5
aI39
aI44
as(I10
I32
I45
tp2445
(lp2446
I18
as(I7
I9
I33
tp2447
(lp2448
I23
aI34
aI40
as(I43
I35
I16
tp2449
(lp2450
I14
aI22
as(I3
I31
I3
tp2451
(lp2452
I10
aI29
aI39
aI48
as(I5
I21
I40
tp2453
(lp2454
I9
as(I24
I33
I42
tp2455
(lp2456
I17
as(I39
I11
I20
tp2457
(lp2458
I37
aI38
aI45
as(I2
I15
I19
tp2459
(lp2460
I11
as(I12
I25
I2
tp2461
(lp2462
I46
as(I7
I47
I12
tp2463
(lp2464
I2
aI15
aI17
as(I23
I26
I34
tp2465
(lp2466
I1
aI33
as(I6
I45
I12
tp2467
(lp2468
I15
as(I48
I33
I40
tp2469
(lp2470
I33
as(I17
I26
I30
tp2471
(lp2472
I26
as(I34
I30
I26
tp2473
(lp2474
I30
as(I40
I17
I49
tp2475
(lp2476
I43
as(I29
I39
I10
tp2477
(lp2478
I3
aI4
as(I3
I12
I24
tp2479
(lp2480
I42
as(I11
I39
I15
tp2481
(lp2482
I45
as(I50
I42
I19
tp2483
(lp2484
I37
as(I47
I42
I25
tp2485
(lp2486
I24
aI35
as(I21
I5
I40
tp2487
(lp2488
I13
as(I38
I35
I29
tp2489
(lp2490
I35
as(I11
I40
I44
tp2491
(lp2492
I6
aI31
as(I36
I20
I30
tp2493
(lp2494
I24
as(I50
I13
I6
tp2495
(lp2496
I26
as(I14
I9
I33
tp2497
(lp2498
I40
as(I29
I3
I9
tp2499
(lp2500
I4
as(I6
I45
I38
tp2501
(lp2502
I20
as(I5
I29
I28
tp2503
(lp2504
I21
as(I18
I42
I18
tp2505
(lp2506
I16
aI32
aI45
aI49
as(I28
I39
I20
tp2507
(lp2508
I39
as(I23
I43
I30
tp2509
(lp2510
I24
as(I4
I33
I26
tp2511
(lp2512
I6
aI7
as(I46
I48
I9
tp2513
(lp2514
I21
aI22
as(I17
I40
I17
tp2515
(lp2516
I12
aI34
aI42
aI46
as(I41
I19
I20
tp2517
(lp2518
I37
aI38
as(I14
I44
I23
tp2519
(lp2520
I6
as(I25
I9
I25
tp2521
(lp2522
I23
aI24
aI35
aI47
as(I46
I17
I38
tp2523
(lp2524
I7
as(I24
I21
I24
tp2525
(lp2526
I25
aI30
aI42
aI48
as(I21
I27
I22
tp2527
(lp2528
I16
as(I36
I14
I28
tp2529
(lp2530
I43
as(I9
I7
I33
tp2531
(lp2532
I7
as(I37
I19
I42
tp2533
(lp2534
I43
as(I50
I31
I34
tp2535
(lp2536
I10
as(I26
I17
I42
tp2537
(lp2538
I17
as(I15
I13
I20
tp2539
(lp2540
I38
as(I26
I8
I7
tp2541
(lp2542
I12
as(I42
I47
I25
tp2543
(lp2544
I47
as(I19
I36
I11
tp2545
(lp2546
I8
aI36
aI44
as(I7
I47
I23
tp2547
(lp2548
I25
as(I17
I40
I2
tp2549
(lp2550
I13
as(I44
I14
I19
tp2551
(lp2552
I27
aI37
as(I48
I33
I1
tp2553
(lp2554
I34
as(I17
I26
I7
tp2555
(lp2556
I26
as(I40
I28
I21
tp2557
(lp2558
I28
as(I27
I21
I4
tp2559
(lp2560
I9
as(I21
I24
I8
tp2561
(lp2562
I1
as(I9
I10
I21
tp2563
(lp2564
I28
aI48
as(I11
I39
I38
tp2565
(lp2566
I20
as(I47
I42
I14
tp2567
(lp2568
I37
as(I20
I17
I39
tp2569
(lp2570
I3
as(I41
I2
I17
tp2571
(lp2572
I12
as(I39
I11
I45
tp2573
(lp2574
I27
as(I28
I40
I43
tp2575
(lp2576
I49
as(I5
I21
I28
tp2577
(lp2578
I21
as(I47
I7
I38
tp2579
(lp2580
I7
as(I34
I28
I15
tp2581
(lp2582
I8
as(I28
I5
I32
tp2583
(lp2584
I5
as(I9
I14
I35
tp2585
(lp2586
I14
as(I3
I12
I39
tp2587
(lp2588
I20
as(I3
I27
I39
tp2589
(lp2590
I20
aI32
as(I30
I2
I42
tp2591
(lp2592
I17
as(I38
I35
I36
tp2593
(lp2594
I14
as(I30
I34
I25
tp2595
(lp2596
I23
as(I45
I18
I20
tp2597
(lp2598
I37
aI39
as(I47
I37
I12
tp2599
(lp2600
I17
as(I3
I31
I32
tp2601
(lp2602
I18
aI44
as(I25
I9
I48
tp2603
(lp2604
I21
aI22
as(I16
I10
I4
tp2605
(lp2606
I10
as(I43
I1
I27
tp2607
(lp2608
I19
aI45
as(I38
I31
I7
tp2609
(lp2610
I33
as(I22
I27
I42
tp2611
(lp2612
I43
as(I36
I14
I11
tp2613
(lp2614
I19
aI44
as(I9
I25
I9
tp2615
(lp2616
I4
aI21
aI22
aI40
as(I23
I43
I50
tp2617
(lp2618
I49
as(I38
I46
I47
tp2619
(lp2620
I46
as(I31
I38
I33
tp2621
(lp2622
I7
as(I42
I47
I50
tp2623
(lp2624
I46
as(I19
I37
I12
tp2625
(lp2626
I17
as(I15
I2
I38
tp2627
(lp2628
I2
as(I48
I33
I26
tp2629
(lp2630
I7
as(I16
I13
I10
tp2631
(lp2632
I4
as(I27
I21
I19
tp2633
(lp2634
I11
as(I4
I18
I40
tp2635
(lp2636
I50
as(I12
I25
I33
tp2637
(lp2638
I23
as(I43
I35
I48
tp2639
(lp2640
I22
as(I8
I50
I1
tp2641
(lp2642
I34
as(I36
I14
I32
tp2643
(lp2644
I18
as(I24
I33
I10
tp2645
(lp2646
I34
as(I4
I49
I5
tp2647
(lp2648
I28
aI32
as(I39
I16
I35
tp2649
(lp2650
I14
aI22
as(I47
I7
I17
tp2651
(lp2652
I12
as(I9
I25
I46
tp2653
(lp2654
I47
as(I1
I49
I17
tp2655
(lp2656
I46
as(I44
I14
I41
tp2657
(lp2658
I29
as(I14
I36
I23
tp2659
(lp2660
I1
as(I28
I39
I42
tp2661
(lp2662
I37
as(I6
I38
I20
tp2663
(lp2664
I38
as(I24
I46
I35
tp2665
(lp2666
I29
as(I42
I41
I34
tp2667
(lp2668
I10
as(I45
I20
I37
tp2669
(lp2670
I20
as(I6
I32
I36
tp2671
(lp2672
I5
as(I8
I4
I41
tp2673
(lp2674
I10
as(I6
I45
I6
tp2675
(lp2676
I21
aI23
aI26
aI44
as(I43
I1
I34
tp2677
(lp2678
I1
as(I38
I31
I40
tp2679
(lp2680
I50
as(I14
I44
I14
tp2681
(lp2682
I16
aI35
aI36
aI37
as(I14
I47
I22
tp2683
(lp2684
I35
as(I9
I7
I23
tp2685
(lp2686
I33
as(I27
I6
I43
tp2687
(lp2688
I28
aI49
as(I18
I1
I44
tp2689
(lp2690
I6
aI11
as(I26
I17
I24
tp2691
(lp2692
I42
as(I30
I2
I19
tp2693
(lp2694
I38
as(I49
I35
I29
tp2695
(lp2696
I35
as(I31
I50
I41
tp2697
(lp2698
I10
aI47
as(I50
I8
I40
tp2699
(lp2700
I33
as(I23
I30
I25
tp2701
(lp2702
I24
aI35
as(I41
I36
I47
tp2703
(lp2704
I15
aI25
as(I16
I13
I19
tp2705
(lp2706
I38
as(I46
I17
I12
tp2707
(lp2708
I17
as(I17
I46
I24
tp2709
(lp2710
I25
as(I27
I21
I42
tp2711
(lp2712
I24
as(I7
I9
I40
tp2713
(lp2714
I9
aI13
as(I18
I4
I43
tp2715
(lp2716
I28
as(I8
I50
I40
tp2717
(lp2718
I50
as(I42
I18
I12
tp2719
(lp2720
I15
as(I28
I40
I31
tp2721
(lp2722
I50
as(I18
I4
I16
tp2723
(lp2724
I14
aI22
as(I39
I11
I31
tp2725
(lp2726
I44
as(I2
I30
I46
tp2727
(lp2728
I17
as(I19
I36
I43
tp2729
(lp2730
I28
as(I33
I48
I7
tp2731
(lp2732
I26
as(I39
I28
I43
tp2733
(lp2734
I28
as(I34
I30
I17
tp2735
(lp2736
I12
aI42
as(I22
I29
I35
tp2737
(lp2738
I25
aI29
as(I34
I10
I50
tp2739
(lp2740
I31
as(I3
I12
I17
tp2741
(lp2742
I12
as(I47
I42
I46
tp2743
(lp2744
I2
aI17
aI50
as(I27
I6
I49
tp2745
(lp2746
I31
as(I38
I35
I22
tp2747
(lp2748
I35
as(I32
I6
I49
tp2749
(lp2750
I31
as(I20
I17
I7
tp2751
(lp2752
I12
as(I22
I48
I24
tp2753
(lp2754
I48
as(I45
I20
I18
tp2755
(lp2756
I16
aI32
as(I49
I4
I28
tp2757
(lp2758
I5
aI21
as(I6
I45
I47
tp2759
(lp2760
I15
as(I14
I47
I15
tp2761
(lp2762
I47
as(I44
I43
I44
tp2763
(lp2764
I6
aI11
aI31
aI32
as(I33
I24
I13
tp2765
(lp2766
I26
as(I32
I23
I26
tp2767
(lp2768
I7
as(I18
I1
I5
tp2769
(lp2770
I28
aI36
as(I28
I39
I29
tp2771
(lp2772
I39
as(I23
I32
I5
tp2773
(lp2774
I32
as(I41
I19
I11
tp2775
(lp2776
I19
as(I25
I9
I16
tp2777
(lp2778
I22
as(I26
I44
I23
tp2779
(lp2780
I6
as(I24
I21
I1
tp2781
(lp2782
I23
as(I43
I23
I28
tp2783
(lp2784
I8
aI21
as(I16
I39
I22
tp2785
(lp2786
I35
aI48
as(I9
I7
I40
tp2787
(lp2788
I13
aI33
as(I36
I14
I43
tp2789
(lp2790
I42
as(I9
I25
I41
tp2791
(lp2792
I47
as(I42
I18
I45
tp2793
(lp2794
I18
as(I28
I40
I6
tp2795
(lp2796
I23
as(I38
I46
I15
tp2797
(lp2798
I47
as(I26
I8
I30
tp2799
(lp2800
I1
aI36
as(I26
I23
I6
tp2801
(lp2802
I23
aI44
as(I19
I36
I28
tp2803
(lp2804
I5
as(I5
I11
I6
tp2805
(lp2806
I44
as(I47
I14
I30
tp2807
(lp2808
I36
as(I39
I29
I20
tp2809
(lp2810
I37
aI45
as(I36
I41
I34
tp2811
(lp2812
I10
as(I34
I10
I25
tp2813
(lp2814
I47
as(I21
I24
I1
tp2815
(lp2816
I30
as(I7
I2
I40
tp2817
(lp2818
I13
aI50
as(I50
I42
I33
tp2819
(lp2820
I34
as(I24
I46
I13
tp2821
(lp2822
I2
as(I30
I16
I32
tp2823
(lp2824
I18
as(I39
I16
I3
tp2825
(lp2826
I48
as(I37
I47
I17
tp2827
(lp2828
I12
aI46
as(I14
I9
I23
tp2829
(lp2830
I33
as(I25
I11
I37
tp2831
(lp2832
I19
as(I5
I29
I14
tp2833
(lp2834
I35
as(I24
I46
I25
tp2835
(lp2836
I35
aI47
as(I24
I33
I3
tp2837
(lp2838
I10
as(I33
I24
I26
tp2839
(lp2840
I30
as(I35
I38
I27
tp2841
(lp2842
I19
as(I27
I3
I27
tp2843
(lp2844
I16
aI19
aI43
aI45
as(I28
I39
I10
tp2845
(lp2846
I3
as(I32
I1
I45
tp2847
(lp2848
I15
as(I35
I49
I35
tp2849
(lp2850
I14
aI22
aI25
aI29
as(I45
I18
I45
tp2851
(lp2852
I15
aI18
aI20
aI27
as(I6
I27
I43
tp2853
(lp2854
I27
as(I46
I17
I34
tp2855
(lp2856
I17
as(I13
I48
I9
tp2857
(lp2858
I21
aI22
as(I11
I25
I1
tp2859
(lp2860
I23
aI30
as(I46
I38
I7
tp2861
(lp2862
I38
as(I5
I21
I13
tp2863
(lp2864
I40
as(I22
I27
I19
tp2865
(lp2866
I27
as(I12
I37
I2
tp2867
(lp2868
I38
aI46
as(I25
I40
I34
tp2869
(lp2870
I33
as(I28
I34
I4
tp2871
(lp2872
I10
as(I35
I49
I16
tp2873
(lp2874
I18
aI27
as(I20
I31
I20
tp2875
(lp2876
I37
aI39
aI45
as(I15
I13
I2
tp2877
(lp2878
I13
as(I31
I38
I46
tp2879
(lp2880
I2
as(I42
I47
I43
tp2881
(lp2882
I27
aI49
as(I19
I36
I5
tp2883
(lp2884
I36
as(I23
I32
I26
tp2885
(lp2886
I6
as(I31
I50
I9
tp2887
(lp2888
I40
as(I44
I14
I37
tp2889
(lp2890
I14
as(I2
I15
I11
tp2891
(lp2892
I8
as(I41
I36
I15
tp2893
(lp2894
I8
as(I40
I17
I12
tp2895
(lp2896
I17
as(I21
I24
I22
tp2897
(lp2898
I35
aI48
as(I48
I22
I9
tp2899
(lp2900
I22
as(I43
I35
I43
tp2901
(lp2902
I27
aI28
aI42
aI49
as(I8
I50
I8
tp2903
(lp2904
I1
aI11
aI15
aI28
as(I11
I40
I7
tp2905
(lp2906
I33
as(I32
I6
I3
tp2907
(lp2908
I48
as(I10
I9
I40
tp2909
(lp2910
I9
as(I45
I22
I16
tp2911
(lp2912
I14
aI22
as(I46
I38
I37
tp2913
(lp2914
I19
as(I23
I26
I11
tp2915
(lp2916
I36
as(I39
I28
I11
tp2917
(lp2918
I8
as(I42
I50
I33
tp2919
(lp2920
I40
as(I47
I7
I24
tp2921
(lp2922
I30
as(I34
I28
I1
tp2923
(lp2924
I8
aI23
as(I37
I47
I41
tp2925
(lp2926
I47
as(I22
I29
I3
tp2927
(lp2928
I29
aI39
as(I28
I5
I18
tp2929
(lp2930
I32
as(I1
I49
I8
tp2931
(lp2932
I11
aI15
aI28
as(I30
I16
I14
tp2933
(lp2934
I16
aI35
as(I46
I48
I34
tp2935
(lp2936
I10
as(I29
I22
I25
tp2937
(lp2938
I24
as(I30
I16
I25
tp2939
(lp2940
I35
as(I10
I9
I29
tp2941
(lp2942
I35
as(I18
I45
I47
tp2943
(lp2944
I15
as(I34
I24
I23
tp2945
(lp2946
I1
aI25
as(I25
I11
I30
tp2947
(lp2948
I36
as(I16
I10
I22
tp2949
(lp2950
I9
aI35
aI48
as(I38
I31
I49
tp2951
(lp2952
I31
as(I22
I45
I18
tp2953
(lp2954
I45
as(I6
I27
I11
tp2955
(lp2956
I19
as(I29
I22
I29
tp2957
(lp2958
I3
aI35
aI39
aI41
as(I21
I8
I28
tp2959
(lp2960
I5
aI8
as(I20
I31
I45
tp2961
(lp2962
I18
aI27
as(I15
I13
I41
tp2963
(lp2964
I10
as(I19
I37
I2
tp2965
(lp2966
I12
as(I7
I44
I40
tp2967
(lp2968
I50
as(I25
I11
I23
tp2969
(lp2970
I1
aI6
as(I23
I30
I6
tp2971
(lp2972
I26
aI44
as(I19
I15
I20
tp2973
(lp2974
I45
as(I16
I13
I4
tp2975
(lp2976
I13
as(I2
I41
I2
tp2977
(lp2978
I12
aI13
aI38
aI46
as(I9
I10
I48
tp2979
(lp2980
I3
as(I25
I40
I21
tp2981
(lp2982
I9
as(I21
I27
I45
tp2983
(lp2984
I27
as(I7
I9
I23
tp2985
(lp2986
I6
as(I31
I3
I29
tp2987
(lp2988
I3
aI39
as(I21
I5
I13
tp2989
(lp2990
I4
as(I39
I16
I45
tp2991
(lp2992
I18
aI27
as(I25
I12
I26
tp2993
(lp2994
I7
as(I10
I9
I3
tp2995
(lp2996
I29
aI48
as(I49
I1
I41
tp2997
(lp2998
I10
as(I28
I5
I11
tp2999
(lp3000
I36
aI44
as(I48
I13
I3
tp3001
(lp3002
I10
as(I3
I12
I10
tp3003
(lp3004
I4
aI34
aI41
as(I27
I3
I45
tp3005
(lp3006
I18
aI20
as(I12
I3
I12
tp3007
(lp3008
I2
aI7
aI15
aI17
as(I43
I1
I21
tp3009
(lp3010
I6
as(I31
I20
I32
tp3011
(lp3012
I39
as(I26
I23
I44
tp3013
(lp3014
I11
as(I45
I20
I43
tp3015
(lp3016
I42
as(I29
I3
I31
tp3017
(lp3018
I44
as(I49
I4
I21
tp3019
(lp3020
I9
as(I10
I9
I28
tp3021
(lp3022
I21
as(I11
I25
I47
tp3023
(lp3024
I25
as(I26
I44
I8
tp3025
(lp3026
I11
as(I16
I30
I27
tp3027
(lp3028
I19
as(I35
I43
I49
tp3029
(lp3030
I43
as(I32
I23
I5
tp3031
(lp3032
I28
aI36
as(I30
I2
I1
tp3033
(lp3034
I8
aI34
as(I21
I5
I36
tp3035
(lp3036
I5
as(I49
I35
I43
tp3037
(lp3038
I42
as(I40
I25
I22
tp3039
(lp3040
I35
aI48
as(I2
I7
I46
tp3041
(lp3042
I17
aI50
as(I41
I19
I2
tp3043
(lp3044
I38
as(I6
I32
I18
tp3045
(lp3046
I32
as(I18
I4
I10
tp3047
(lp3048
I4
as(I46
I17
I2
tp3049
(lp3050
I12
aI38
as(I40
I25
I47
tp3051
(lp3052
I25
as(I17
I46
I42
tp3053
(lp3054
I24
aI43
as(I41
I19
I14
tp3055
(lp3056
I37
as(I26
I44
I7
tp3057
(lp3058
I38
as(I25
I40
I2
tp3059
(lp3060
I13
as(I13
I15
I2
tp3061
(lp3062
I12
aI38
aI46
as(I43
I35
I29
tp3063
(lp3064
I35
as(I40
I11
I6
tp3065
(lp3066
I44
as(I28
I34
I36
tp3067
(lp3068
I30
as(I28
I40
I13
tp3069
(lp3070
I40
as(I8
I4
I47
tp3071
(lp3072
I41
as(I19
I36
I37
tp3073
(lp3074
I14
aI42
as(I33
I48
I21
tp3075
(lp3076
I48
as(I44
I14
I5
tp3077
(lp3078
I36
as(I4
I8
I5
tp3079
(lp3080
I28
aI32
aI36
as(I13
I16
I48
tp3081
(lp3082
I22
as(I7
I2
I33
tp3083
(lp3084
I34
aI40
as(I50
I42
I40
tp3085
(lp3086
I33
as(I17
I46
I38
tp3087
(lp3088
I2
as(I22
I48
I42
tp3089
(lp3090
I24
as(I30
I16
I43
tp3091
(lp3092
I27
as(I39
I16
I20
tp3093
(lp3094
I37
aI45
as(I37
I47
I24
tp3095
(lp3096
I25
as(I25
I11
I44
tp3097
(lp3098
I11
as(I34
I28
I33
tp3099
(lp3100
I40
as(I26
I17
I1
tp3101
(lp3102
I34
as(I1
I49
I40
tp3103
(lp3104
I50
as(I13
I16
I5
tp3105
(lp3106
I32
aI36
as(I32
I23
I40
tp3107
(lp3108
I33
as(I18
I1
I19
tp3109
(lp3110
I11
as(I27
I3
I18
tp3111
(lp3112
I32
as(I43
I44
I6
tp3113
(lp3114
I44
as(I28
I39
I3
tp3115
(lp3116
I29
aI39
as(I45
I6
I15
tp3117
(lp3118
I8
aI12
as(I49
I35
I50
tp3119
(lp3120
I31
aI46
as(I46
I48
I50
tp3121
(lp3122
I40
as(I10
I32
I31
tp3123
(lp3124
I44
aI49
as(I18
I45
I15
tp3125
(lp3126
I45
as(I46
I17
I43
tp3127
(lp3128
I42
as(I40
I25
I24
tp3129
(lp3130
I25
as(I37
I12
I15
tp3131
(lp3132
I12
as(I22
I27
I28
tp3133
(lp3134
I43
as(I21
I27
I19
tp3135
(lp3136
I27
as(I18
I42
I43
tp3137
(lp3138
I42
as(I37
I19
I39
tp3139
(lp3140
I32
as(I1
I43
I45
tp3141
(lp3142
I27
as(I26
I17
I33
tp3143
(lp3144
I34
as(I19
I36
I14
tp3145
(lp3146
I36
as(I7
I44
I8
tp3147
(lp3148
I11
as(I44
I14
I44
tp3149
(lp3150
I6
aI11
aI31
aI32
as(I2
I15
I20
tp3151
(lp3152
I45
as(I19
I15
I16
tp3153
(lp3154
I18
as(I17
I26
I2
tp3155
(lp3156
I12
aI13
as(I36
I41
I44
tp3157
(lp3158
I31
as(I4
I8
I28
tp3159
(lp3160
I8
as(I1
I32
I36
tp3161
(lp3162
I5
as(I33
I4
I6
tp3163
(lp3164
I21
aI26
as(I33
I15
I7
tp3165
(lp3166
I12
aI38
as(I28
I40
I1
tp3167
(lp3168
I34
as(I32
I6
I26
tp3169
(lp3170
I6
as(I26
I23
I30
tp3171
(lp3172
I1
aI24
as(I39
I11
I38
tp3173
(lp3174
I19
as(I2
I30
I5
tp3175
(lp3176
I36
as(I14
I9
I5
tp3177
(lp3178
I4
aI28
as(I47
I37
I47
tp3179
(lp3180
I15
aI25
aI41
aI46
as(I1
I18
I44
tp3181
(lp3182
I32
as(I42
I50
I40
tp3183
(lp3184
I50
as(I34
I28
I8
tp3185
(lp3186
I28
as(I28
I5
I43
tp3187
(lp3188
I49
as(I33
I24
I40
tp3189
(lp3190
I13
as(I40
I11
I7
tp3191
(lp3192
I38
as(I13
I15
I20
tp3193
(lp3194
I45
as(I3
I12
I42
tp3195
(lp3196
I17
as(I31
I3
I32
tp3197
(lp3198
I39
as(I3
I27
I32
tp3199
(lp3200
I18
as(I38
I35
I47
tp3201
(lp3202
I25
as(I45
I18
I31
tp3203
(lp3204
I49
as(I8
I21
I28
tp3205
(lp3206
I5
aI21
as(I18
I45
I20
tp3207
(lp3208
I45
as(I34
I24
I30
tp3209
(lp3210
I24
as(I15
I33
I1
tp3211
(lp3212
I23
aI34
as(I44
I7
I32
tp3213
(lp3214
I39
as(I11
I25
I15
tp3215
(lp3216
I47
as(I1
I43
I8
tp3217
(lp3218
I11
aI15
aI28
as(I22
I27
I37
tp3219
(lp3220
I19
as(I12
I37
I20
tp3221
(lp3222
I37
as(I48
I13
I28
tp3223
(lp3224
I5
as(I37
I19
I14
tp3225
(lp3226
I16
aI36
as(I21
I8
I21
tp3227
(lp3228
I6
aI9
aI28
aI48
as(I12
I25
I6
tp3229
(lp3230
I23
as(I48
I33
I7
tp3231
(lp3232
I33
as(I15
I2
I8
tp3233
(lp3234
I11
as(I7
I2
I7
tp3235
(lp3236
I12
aI26
aI33
aI38
as(I47
I14
I37
tp3237
(lp3238
I14
as(I38
I6
I38
tp3239
(lp3240
I2
aI7
aI19
aI20
as(I41
I36
I29
tp3241
(lp3242
I35
aI39
as(I19
I15
I47
tp3243
(lp3244
I15
as(I36
I41
I5
tp3245
(lp3246
I4
aI32
as(I24
I21
I42
tp3247
(lp3248
I43
as(I17
I40
I7
tp3249
(lp3250
I26
aI33
as(I27
I21
I24
tp3251
(lp3252
I48
as(I31
I3
I47
tp3253
(lp3254
I25
as(I7
I2
I15
tp3255
(lp3256
I47
as(I36
I41
I39
tp3257
(lp3258
I29
as(I34
I10
I46
tp3259
(lp3260
I47
aI50
as(I22
I45
I22
tp3261
(lp3262
I16
aI35
aI48
as(I32
I6
I13
tp3263
(lp3264
I26
as(I42
I18
I20
tp3265
(lp3266
I45
as(I36
I19
I8
tp3267
(lp3268
I11
as(I32
I10
I18
tp3269
(lp3270
I49
as(I7
I47
I41
tp3271
(lp3272
I47
as(I27
I6
I31
tp3273
(lp3274
I44
as(I1
I18
I5
tp3275
(lp3276
I32
as(I28
I5
I4
tp3277
(lp3278
I5
as(I12
I25
I17
tp3279
(lp3280
I34
aI42
aI46
as(I3
I12
I3
tp3281
(lp3282
I10
aI29
aI39
aI48
as(I31
I20
I41
tp3283
(lp3284
I29
aI47
as(I22
I48
I10
tp3285
(lp3286
I3
as(I45
I20
I32
tp3287
(lp3288
I39
as(I8
I21
I5
tp3289
(lp3290
I4
aI28
as(I6
I27
I6
tp3291
(lp3292
I21
aI26
aI44
as(I29
I3
I22
tp3293
(lp3294
I9
aI48
as(I49
I4
I10
tp3295
(lp3296
I4
as(I10
I9
I21
tp3297
(lp3298
I9
as(I14
I47
I25
tp3299
(lp3300
I47
as(I2
I41
I10
tp3301
(lp3302
I41
as(I32
I23
I8
tp3303
(lp3304
I1
as(I30
I2
I24
tp3305
(lp3306
I42
as(I32
I1
I6
tp3307
(lp3308
I23
aI26
as(I49
I35
I18
tp3309
(lp3310
I16
aI32
as(I31
I50
I44
tp3311
(lp3312
I6
aI32
as(I6
I32
I13
tp3313
(lp3314
I4
as(I36
I41
I30
tp3315
(lp3316
I1
as(I4
I49
I21
tp3317
(lp3318
I28
as(I32
I10
I41
tp3319
(lp3320
I10
as(I50
I42
I47
tp3321
(lp3322
I25
as(I23
I32
I21
tp3323
(lp3324
I28
as(I1
I18
I30
tp3325
(lp3326
I36
as(I41
I42
I12
tp3327
(lp3328
I17
as(I46
I38
I46
tp3329
(lp3330
I2
aI17
aI47
aI50
as(I17
I26
I34
tp3331
(lp3332
I1
aI33
as(I34
I10
I47
tp3333
(lp3334
I41
as(I29
I39
I22
tp3335
(lp3336
I48
as(I3
I12
I20
tp3337
(lp3338
I38
aI45
as(I11
I39
I11
tp3339
(lp3340
I8
aI19
aI36
aI44
as(I31
I20
I18
tp3341
(lp3342
I32
aI45
as(I2
I15
I26
tp3343
(lp3344
I7
as(I35
I49
I31
tp3345
(lp3346
I49
aI50
as(I22
I48
I37
tp3347
(lp3348
I42
as(I50
I13
I10
tp3349
(lp3350
I4
as(I17
I20
I33
tp3351
(lp3352
I7
as(I46
I24
I13
tp3353
(lp3354
I26
as(I5
I28
I8
tp3355
(lp3356
I28
as(I34
I28
I40
tp3357
(lp3358
I9
as(I24
I46
I26
tp3359
(lp3360
I13
as(I16
I30
I48
tp3361
(lp3362
I24
as(I32
I23
I33
tp3363
(lp3364
I23
as(I18
I1
I8
tp3365
(lp3366
I1
as(I4
I33
I6
tp3367
(lp3368
I23
as(I30
I2
I15
tp3369
(lp3370
I12
as(I21
I5
I22
tp3371
(lp3372
I9
as(I27
I6
I28
tp3373
(lp3374
I21
as(I38
I6
I20
tp3375
(lp3376
I39
as(I17
I40
I12
tp3377
(lp3378
I2
aI7
as(I43
I23
I1
tp3379
(lp3380
I23
as(I41
I2
I49
tp3381
(lp3382
I50
as(I25
I40
I48
tp3383
(lp3384
I21
as(I38
I35
I3
tp3385
(lp3386
I29
as(I9
I14
I36
tp3387
(lp3388
I14
as(I1
I43
I36
tp3389
(lp3390
I5
as(I42
I18
I42
tp3391
(lp3392
I17
aI37
aI43
as(I36
I19
I38
tp3393
(lp3394
I19
as(I20
I45
I42
tp3395
(lp3396
I43
as(I39
I29
I25
tp3397
(lp3398
I35
as(I41
I42
I37
tp3399
(lp3400
I42
as(I49
I1
I18
tp3401
(lp3402
I45
as(I34
I30
I13
tp3403
(lp3404
I26
as(I4
I8
I11
tp3405
(lp3406
I8
as(I7
I2
I47
tp3407
(lp3408
I46
as(I4
I18
I13
tp3409
(lp3410
I40
as(I48
I22
I27
tp3411
(lp3412
I16
as(I47
I42
I10
tp3413
(lp3414
I34
as(I33
I24
I23
tp3415
(lp3416
I1
aI6
aI25
as(I26
I23
I7
tp3417
(lp3418
I33
as(I39
I11
I41
tp3419
(lp3420
I31
as(I14
I9
I18
tp3421
(lp3422
I49
as(I39
I28
I29
tp3423
(lp3424
I3
as(I10
I34
I25
tp3425
(lp3426
I23
as(I28
I5
I36
tp3427
(lp3428
I5
as(I33
I24
I17
tp3429
(lp3430
I42
as(I10
I16
I31
tp3431
(lp3432
I49
as(I28
I39
I49
tp3433
(lp3434
I18
as(I30
I2
I38
tp3435
(lp3436
I2
as(I35
I49
I40
tp3437
(lp3438
I50
as(I45
I18
I16
tp3439
(lp3440
I18
as(I50
I8
I31
tp3441
(lp3442
I41
aI44
aI49
as(I43
I44
I18
tp3443
(lp3444
I32
as(I6
I27
I38
tp3445
(lp3446
I19
as(I48
I46
I40
tp3447
(lp3448
I50
as(I34
I24
I1
tp3449
(lp3450
I23
aI30
as(I15
I33
I8
tp3451
(lp3452
I1
as(I26
I44
I11
tp3453
(lp3454
I44
as(I11
I25
I6
tp3455
(lp3456
I23
as(I5
I21
I6
tp3457
(lp3458
I21
as(I14
I44
I19
tp3459
(lp3460
I11
as(I25
I40
I41
tp3461
(lp3462
I31
as(I48
I13
I5
tp3463
(lp3464
I4
as(I9
I7
I12
tp3465
(lp3466
I7
as(I28
I34
I9
tp3467
(lp3468
I40
as(I3
I29
I25
tp3469
(lp3470
I35
as(I15
I13
I7
tp3471
(lp3472
I26
aI33
as(I15
I2
I17
tp3473
(lp3474
I12
aI46
as(I19
I37
I16
tp3475
(lp3476
I14
as(I7
I44
I26
tp3477
(lp3478
I6
aI30
as(I39
I29
I48
tp3479
(lp3480
I22
aI24
as(I48
I33
I30
tp3481
(lp3482
I1
as(I19
I15
I38
tp3483
(lp3484
I2
aI7
aI20
as(I44
I26
I7
tp3485
(lp3486
I26
as(I4
I8
I34
tp3487
(lp3488
I1
as(I40
I17
I7
tp3489
(lp3490
I12
as(I22
I45
I20
tp3491
(lp3492
I45
as(I5
I28
I43
tp3493
(lp3494
I28
as(I9
I10
I34
tp3495
(lp3496
I10
as(I1
I32
I28
tp3497
(lp3498
I5
as(I11
I40
I2
tp3499
(lp3500
I13
as(I32
I6
I4
tp3501
(lp3502
I9
aI13
as(I19
I41
I2
tp3503
(lp3504
I46
as(I32
I10
I29
tp3505
(lp3506
I3
aI41
as(I11
I5
I8
tp3507
(lp3508
I1
aI28
as(I17
I20
I15
tp3509
(lp3510
I45
as(I33
I48
I34
tp3511
(lp3512
I10
aI17
as(I39
I28
I6
tp3513
(lp3514
I21
as(I50
I31
I32
tp3515
(lp3516
I44
as(I38
I46
I34
tp3517
(lp3518
I17
as(I9
I14
I48
tp3519
(lp3520
I22
aI24
as(I5
I28
I36
tp3521
(lp3522
I11
aI30
as(I20
I36
I45
tp3523
(lp3524
I27
as(I17
I40
I46
tp3525
(lp3526
I2
aI50
as(I30
I16
I18
tp3527
(lp3528
I16
as(I18
I45
I42
tp3529
(lp3530
I37
as(I22
I27
I35
tp3531
(lp3532
I14
as(I25
I9
I47
tp3533
(lp3534
I41
as(I10
I9
I10
tp3535
(lp3536
I3
aI4
aI34
aI41
as(I37
I12
I42
tp3537
(lp3538
I17
as(I13
I48
I10
tp3539
(lp3540
I3
as(I35
I43
I35
tp3541
(lp3542
I14
aI22
aI25
aI29
as(I13
I16
I38
tp3543
(lp3544
I19
as(I32
I23
I1
tp3545
(lp3546
I23
as(I3
I29
I48
tp3547
(lp3548
I22
aI24
as(I15
I13
I46
tp3549
(lp3550
I2
aI50
as(I31
I38
I50
tp3551
(lp3552
I40
aI46
as(I49
I35
I25
tp3553
(lp3554
I35
as(I30
I23
I24
tp3555
(lp3556
I25
aI48
as(I37
I12
I19
tp3557
(lp3558
I27
aI38
as(I6
I32
I4
tp3559
(lp3560
I5
as(I10
I34
I24
tp3561
(lp3562
I42
as(I46
I17
I40
tp3563
(lp3564
I33
as(I24
I21
I36
tp3565
(lp3566
I5
as(I26
I17
I7
tp3567
(lp3568
I12
aI33
aI38
as(I21
I27
I42
tp3569
(lp3570
I37
aI43
as(I37
I19
I8
tp3571
(lp3572
I11
as(I8
I50
I44
tp3573
(lp3574
I31
as(I9
I25
I50
tp3575
(lp3576
I46
as(I45
I22
I20
tp3577
(lp3578
I37
aI39
as(I39
I11
I27
tp3579
(lp3580
I19
as(I32
I10
I4
tp3581
(lp3582
I10
as(I12
I25
I23
tp3583
(lp3584
I25
as(I23
I26
I23
tp3585
(lp3586
I1
aI6
aI25
aI33
as(I1
I18
I23
tp3587
(lp3588
I6
as(I49
I1
I50
tp3589
(lp3590
I40
aI46
as(I22
I29
I47
tp3591
(lp3592
I41
as(I18
I42
I32
tp3593
(lp3594
I5
as(I29
I39
I29
tp3595
(lp3596
I3
aI35
aI39
aI41
as(I3
I12
I13
tp3597
(lp3598
I2
as(I33
I15
I46
tp3599
(lp3600
I47
as(I17
I46
I33
tp3601
(lp3602
I40
as(I35
I49
I22
tp3603
(lp3604
I9
aI16
as(I20
I17
I3
tp3605
(lp3606
I10
as(I24
I34
I47
tp3607
(lp3608
I46
as(I10
I34
I47
tp3609
(lp3610
I25
aI46
as(I23
I26
I13
tp3611
(lp3612
I26
as(I14
I9
I50
tp3613
(lp3614
I40
as(I29
I3
I4
tp3615
(lp3616
I10
as(I6
I45
I43
tp3617
(lp3618
I27
as(I5
I28
I1
tp3619
(lp3620
I8
as(I14
I47
I11
tp3621
(lp3622
I8
as(I3
I29
I47
tp3623
(lp3624
I25
as(I45
I6
I49
tp3625
(lp3626
I31
as(I32
I1
I8
tp3627
(lp3628
I1
as(I49
I35
I32
tp3629
(lp3630
I39
as(I30
I23
I1
tp3631
(lp3632
I23
aI34
as(I1
I43
I24
tp3633
(lp3634
I42
as(I8
I4
I10
tp3635
(lp3636
I4
as(I6
I32
I31
tp3637
(lp3638
I49
as(I34
I24
I33
tp3639
(lp3640
I7
aI23
as(I15
I33
I40
tp3641
(lp3642
I33
as(I23
I32
I6
tp3643
(lp3644
I21
aI44
as(I22
I27
I14
tp3645
(lp3646
I16
aI37
as(I12
I37
I45
tp3647
(lp3648
I20
as(I16
I39
I18
tp3649
(lp3650
I32
aI45
as(I25
I40
I9
tp3651
(lp3652
I40
as(I13
I15
I7
tp3653
(lp3654
I12
as(I13
I16
I21
tp3655
(lp3656
I48
as(I1
I43
I27
tp3657
(lp3658
I43
as(I42
I18
I49
tp3659
(lp3660
I18
as(I26
I8
I26
tp3661
(lp3662
I6
aI7
aI13
aI30
as(I8
I26
I21
tp3663
(lp3664
I6
as(I41
I36
I31
tp3665
(lp3666
I44
as(I31
I38
I20
tp3667
(lp3668
I38
as(I24
I46
I12
tp3669
(lp3670
I2
aI17
as(I44
I14
I30
tp3671
(lp3672
I36
as(I2
I15
I38
tp3673
(lp3674
I7
aI19
aI20
as(I34
I30
I4
tp3675
(lp3676
I13
as(I36
I41
I11
tp3677
(lp3678
I8
aI44
as(I7
I9
I34
tp3679
(lp3680
I10
as(I50
I42
I37
tp3681
(lp3682
I42
as(I2
I15
I8
tp3683
(lp3684
I15
as(I20
I36
I27
tp3685
(lp3686
I19
as(I11
I40
I34
tp3687
(lp3688
I33
as(I32
I6
I36
tp3689
(lp3690
I11
aI30
as(I20
I17
I20
tp3691
(lp3692
I37
aI38
aI39
aI45
as(I45
I20
I15
tp3693
(lp3694
I12
as(I2
I30
I19
tp3695
(lp3696
I11
as(I37
I47
I29
tp3697
(lp3698
I41
as(I10
I34
I31
tp3699
(lp3700
I50
as(I8
I4
I32
tp3701
(lp3702
I5
as(I44
I43
I49
tp3703
(lp3704
I43
as(I27
I22
I43
tp3705
(lp3706
I28
aI49
as(I9
I14
I16
tp3707
(lp3708
I14
aI27
as(I27
I6
I16
tp3709
(lp3710
I18
aI22
as(I21
I5
I8
tp3711
(lp3712
I11
as(I7
I2
I17
tp3713
(lp3714
I12
aI46
as(I45
I18
I41
tp3715
(lp3716
I31
as(I29
I22
I4
tp3717
(lp3718
I9
as(I2
I7
I2
tp3719
(lp3720
I12
aI13
aI38
aI46
as(I38
I6
I26
tp3721
(lp3722
I6
aI30
as(I15
I33
I23
tp3723
(lp3724
I33
as(I13
I48
I5
tp3725
(lp3726
I28
as(I24
I21
I22
tp3727
(lp3728
I9
as(I41
I19
I35
tp3729
(lp3730
I14
as(I38
I31
I20
tp3731
(lp3732
I45
as(I21
I27
I24
tp3733
(lp3734
I42
as(I44
I14
I26
tp3735
(lp3736
I30
as(I9
I25
I4
tp3737
(lp3738
I10
as(I12
I25
I1
tp3739
(lp3740
I23
as(I26
I8
I13
tp3741
(lp3742
I4
as(I8
I26
I12
tp3743
(lp3744
I7
as(I47
I14
I11
tp3745
(lp3746
I36
as(I39
I29
I39
tp3747
(lp3748
I3
aI20
aI29
aI32
as(I48
I33
I23
tp3749
(lp3750
I33
as(I41
I36
I11
tp3751
(lp3752
I36
as(I40
I28
I31
tp3753
(lp3754
I49
as(I34
I10
I4
tp3755
(lp3756
I10
as(I31
I3
I25
tp3757
(lp3758
I35
as(I33
I4
I13
tp3759
(lp3760
I4
as(I11
I39
I44
tp3761
(lp3762
I31
aI32
as(I7
I9
I12
tp3763
(lp3764
I2
as(I11
I40
I11
tp3765
(lp3766
I8
aI19
aI36
aI44
as(I32
I6
I31
tp3767
(lp3768
I44
as(I26
I23
I25
tp3769
(lp3770
I23
as(I24
I34
I1
tp3771
(lp3772
I23
aI34
as(I24
I33
I23
tp3773
(lp3774
I1
aI33
as(I4
I49
I10
tp3775
(lp3776
I41
as(I39
I16
I48
tp3777
(lp3778
I22
as(I50
I13
I33
tp3779
(lp3780
I7
as(I25
I12
I33
tp3781
(lp3782
I7
aI34
as(I34
I28
I5
tp3783
(lp3784
I28
as(I10
I16
I9
tp3785
(lp3786
I22
as(I3
I12
I45
tp3787
(lp3788
I15
as(I39
I16
I36
tp3789
(lp3790
I14
as(I3
I27
I45
tp3791
(lp3792
I27
as(I28
I39
I4
tp3793
(lp3794
I10
as(I31
I3
I10
tp3795
(lp3796
I3
as(I18
I4
I5
tp3797
(lp3798
I4
as(I8
I21
I23
tp3799
(lp3800
I6
as(I18
I45
I19
tp3801
(lp3802
I37
as(I6
I45
I11
tp3803
(lp3804
I19
as(I13
I50
I46
tp3805
(lp3806
I50
as(I17
I40
I43
tp3807
(lp3808
I49
as(I43
I23
I42
tp3809
(lp3810
I17
aI24
as(I44
I43
I8
tp3811
(lp3812
I28
as(I9
I7
I2
tp3813
(lp3814
I12
as(I37
I19
I11
tp3815
(lp3816
I19
as(I21
I8
I24
tp3817
(lp3818
I30
as(I26
I17
I13
tp3819
(lp3820
I2
as(I38
I46
I33
tp3821
(lp3822
I34
as(I8
I4
I26
tp3823
(lp3824
I13
as(I10
I34
I30
tp3825
(lp3826
I1
as(I30
I23
I33
tp3827
(lp3828
I23
as(I41
I19
I39
tp3829
(lp3830
I20
as(I5
I29
I41
tp3831
(lp3832
I29
as(I36
I41
I8
tp3833
(lp3834
I15
as(I21
I24
I43
tp3835
(lp3836
I42
as(I33
I4
I34
tp3837
(lp3838
I10
as(I27
I6
I38
tp3839
(lp3840
I7
as(I42
I18
I17
tp3841
(lp3842
I12
as(I11
I5
I30
tp3843
(lp3844
I36
as(I12
I25
I24
tp3845
(lp3846
I25
as(I7
I47
I34
tp3847
(lp3848
I10
as(I42
I50
I12
tp3849
(lp3850
I2
as(I49
I1
I45
tp3851
(lp3852
I15
as(I10
I34
I50
tp3853
(lp3854
I46
as(I47
I42
I35
tp3855
(lp3856
I14
as(I24
I46
I41
tp3857
(lp3858
I47
as(I39
I28
I21
tp3859
(lp3860
I28
as(I36
I20
I8
tp3861
(lp3862
I15
as(I50
I42
I31
tp3863
(lp3864
I49
as(I25
I11
I1
tp3865
(lp3866
I8
aI30
as(I5
I28
I30
tp3867
(lp3868
I1
as(I13
I50
I7
tp3869
(lp3870
I33
as(I38
I31
I38
tp3871
(lp3872
I2
aI7
aI19
aI20
as(I35
I38
I39
tp3873
(lp3874
I20
as(I3
I27
I18
tp3875
(lp3876
I16
aI45
as(I1
I32
I30
tp3877
(lp3878
I26
aI36
as(I19
I37
I45
tp3879
(lp3880
I20
as(I2
I7
I34
tp3881
(lp3882
I33
as(I18
I42
I50
tp3883
(lp3884
I46
as(I19
I15
I11
tp3885
(lp3886
I8
as(I40
I25
I35
tp3887
(lp3888
I25
as(I24
I46
I42
tp3889
(lp3890
I17
aI43
as(I12
I37
I38
tp3891
(lp3892
I19
aI20
as(I25
I40
I6
tp3893
(lp3894
I26
as(I13
I15
I30
tp3895
(lp3896
I1
as(I18
I4
I49
tp3897
(lp3898
I31
aI43
aI50
as(I19
I41
I39
tp3899
(lp3900
I29
as(I42
I47
I15
tp3901
(lp3902
I47
as(I8
I26
I44
tp3903
(lp3904
I6
as(I33
I48
I9
tp3905
(lp3906
I21
aI22
as(I15
I19
I15
tp3907
(lp3908
I8
aI12
aI45
as(I25
I12
I15
tp3909
(lp3910
I12
as(I2
I15
I47
tp3911
(lp3912
I15
as(I4
I18
I31
tp3913
(lp3914
I49
as(I12
I3
I33
tp3915
(lp3916
I34
as(I47
I42
I24
tp3917
(lp3918
I42
as(I24
I34
I33
tp3919
(lp3920
I34
as(I12
I3
I42
tp3921
(lp3922
I24
as(I29
I3
I10
tp3923
(lp3924
I3
as(I1
I49
I44
tp3925
(lp3926
I31
as(I10
I16
I41
tp3927
(lp3928
I29
aI31
as(I32
I23
I36
tp3929
(lp3930
I30
as(I18
I1
I15
tp3931
(lp3932
I8
as(I27
I3
I22
tp3933
(lp3934
I35
aI48
as(I9
I14
I9
tp3935
(lp3936
I4
aI21
aI22
as(I25
I11
I14
tp3937
(lp3938
I36
aI37
as(I25
I9
I6
tp3939
(lp3940
I21
as(I46
I17
I47
tp3941
(lp3942
I15
aI25
aI41
as(I13
I48
I26
tp3943
(lp3944
I6
aI30
as(I50
I42
I49
tp3945
(lp3946
I18
aI43
as(I16
I39
I32
tp3947
(lp3948
I39
as(I9
I7
I34
tp3949
(lp3950
I33
as(I37
I19
I43
tp3951
(lp3952
I27
as(I22
I45
I16
tp3953
(lp3954
I14
aI18
aI27
as(I5
I21
I36
tp3955
(lp3956
I11
as(I26
I8
I4
tp3957
(lp3958
I5
as(I42
I47
I24
tp3959
(lp3960
I25
as(I8
I26
I7
tp3961
(lp3962
I26
as(I7
I47
I20
tp3963
(lp3964
I45
as(I31
I50
I26
tp3965
(lp3966
I13
as(I5
I11
I8
tp3967
(lp3968
I1
aI11
as(I44
I14
I16
tp3969
(lp3970
I14
as(I49
I1
I31
tp3971
(lp3972
I41
aI44
as(I40
I28
I22
tp3973
(lp3974
I48
as(I16
I13
I32
tp3975
(lp3976
I5
as(I2
I41
I12
tp3977
(lp3978
I15
as(I27
I21
I5
tp3979
(lp3980
I4
as(I1
I43
I21
tp3981
(lp3982
I28
as(I7
I2
I50
tp3983
(lp3984
I46
as(I10
I32
I20
tp3985
(lp3986
I45
as(I48
I22
I28
tp3987
(lp3988
I43
as(I20
I17
I38
tp3989
(lp3990
I2
aI7
as(I2
I30
I1
tp3991
(lp3992
I30
as(I45
I22
I45
tp3993
(lp3994
I15
aI18
aI20
aI27
as(I50
I13
I46
tp3995
(lp3996
I2
aI17
as(I14
I9
I25
tp3997
(lp3998
I23
as(I6
I38
I33
tp3999
(lp4000
I7
as(I1
I18
I32
tp4001
(lp4002
I18
as(I34
I28
I12
tp4003
(lp4004
I15
as(I14
I47
I46
tp4005
(lp4006
I47
as(I16
I30
I18
tp4007
(lp4008
I32
as(I3
I12
I38
tp4009
(lp4010
I2
as(I43
I44
I43
tp4011
(lp4012
I27
aI28
aI49
as(I4
I33
I34
tp4013
(lp4014
I1
aI33
as(I45
I6
I28
tp4015
(lp4016
I21
as(I42
I41
I12
tp4017
(lp4018
I15
as(I46
I48
I17
tp4019
(lp4020
I34
aI42
as(I45
I18
I27
tp4021
(lp4022
I16
aI19
aI43
as(I48
I13
I40
tp4023
(lp4024
I13
as(I8
I21
I24
tp4025
(lp4026
I48
as(I34
I24
I26
tp4027
(lp4028
I30
as(I16
I10
I5
tp4029
(lp4030
I4
as(I43
I1
I28
tp4031
(lp4032
I5
aI8
aI21
as(I5
I21
I3
tp4033
(lp4034
I48
as(I14
I44
I20
tp4035
(lp4036
I39
as(I12
I37
I8
tp4037
(lp4038
I11
as(I48
I13
I24
tp4039
(lp4040
I30
as(I36
I14
I24
tp4041
(lp4042
I25
aI42
as(I9
I7
I9
tp4043
(lp4044
I4
aI21
aI40
as(I45
I6
I45
tp4045
(lp4046
I15
aI18
aI20
aI27
as(I8
I4
I1
tp4047
(lp4048
I30
aI34
as(I42
I47
I49
tp4049
(lp4050
I50
as(I14
I36
I39
tp4051
(lp4052
I32
as(I35
I38
I7
tp4053
(lp4054
I38
as(I44
I7
I6
tp4055
(lp4056
I23
aI26
as(I48
I33
I25
tp4057
(lp4058
I23
as(I41
I36
I25
tp4059
(lp4060
I35
as(I40
I28
I13
tp4061
(lp4062
I4
aI26
as(I36
I41
I1
tp4063
(lp4064
I34
as(I4
I8
I47
tp4065
(lp4066
I15
as(I40
I17
I2
tp4067
(lp4068
I12
aI46
as(I27
I21
I28
tp4069
(lp4070
I5
aI21
as(I14
I36
I27
tp4071
(lp4072
I19
as(I4
I18
I41
tp4073
(lp4074
I31
as(I7
I9
I2
tp4075
(lp4076
I13
as(I43
I35
I49
tp4077
(lp4078
I31
as(I32
I6
I9
tp4079
(lp4080
I21
as(I22
I45
I3
tp4081
(lp4082
I39
as(I36
I19
I20
tp4083
(lp4084
I38
as(I4
I49
I4
tp4085
(lp4086
I5
aI9
aI10
aI13
as(I29
I22
I39
tp4087
(lp4088
I3
as(I11
I5
I21
tp4089
(lp4090
I28
as(I48
I46
I9
tp4091
(lp4092
I40
as(I7
I47
I45
tp4093
(lp4094
I15
as(I25
I12
I47
tp4095
(lp4096
I15
aI46
as(I42
I50
I27
tp4097
(lp4098
I45
as(I34
I28
I23
tp4099
(lp4100
I6
as(I50
I31
I10
tp4101
(lp4102
I41
as(I27
I22
I14
tp4103
(lp4104
I16
aI35
as(I1
I49
I30
tp4105
(lp4106
I24
as(I40
I25
I41
tp4107
(lp4108
I47
as(I50
I42
I12
tp4109
(lp4110
I17
as(I31
I20
I45
tp4111
(lp4112
I20
as(I42
I41
I37
tp4113
(lp4114
I14
as(I23
I43
I44
tp4115
(lp4116
I31
as(I22
I48
I14
tp4117
(lp4118
I37
as(I8
I21
I1
tp4119
(lp4120
I23
aI30
as(I3
I31
I49
tp4121
(lp4122
I31
as(I25
I9
I40
tp4123
(lp4124
I9
as(I25
I11
I8
tp4125
(lp4126
I11
as(I38
I31
I47
tp4127
(lp4128
I41
as(I23
I32
I44
tp4129
(lp4130
I31
aI32
as(I44
I43
I6
tp4131
(lp4132
I21
as(I21
I8
I6
tp4133
(lp4134
I23
aI26
aI44
as(I32
I1
I26
tp4135
(lp4136
I30
as(I6
I38
I32
tp4137
(lp4138
I39
as(I41
I36
I41
tp4139
(lp4140
I10
aI29
aI31
aI47
as(I31
I50
I40
tp4141
(lp4142
I50
as(I8
I4
I15
tp4143
(lp4144
I47
as(I50
I8
I41
tp4145
(lp4146
I47
as(I23
I30
I24
tp4147
(lp4148
I30
as(I30
I34
I23
tp4149
(lp4150
I1
aI33
as(I19
I15
I2
tp4151
(lp4152
I12
aI46
as(I16
I13
I18
tp4153
(lp4154
I32
aI49
as(I46
I17
I15
tp4155
(lp4156
I12
as(I27
I21
I43
tp4157
(lp4158
I28
aI42
as(I1
I32
I45
tp4159
(lp4160
I18
as(I25
I40
I31
tp4161
(lp4162
I50
as(I8
I26
I8
tp4163
(lp4164
I1
aI11
aI15
aI28
as(I18
I4
I40
tp4165
(lp4166
I9
aI13
as(I8
I50
I41
tp4167
(lp4168
I31
as(I19
I37
I27
tp4169
(lp4170
I16
aI43
aI45
as(I39
I11
I28
tp4171
(lp4172
I8
as(I7
I44
I31
tp4173
(lp4174
I44
as(I19
I36
I42
tp4175
(lp4176
I24
as(I33
I48
I6
tp4177
(lp4178
I21
as(I31
I38
I27
tp4179
(lp4180
I19
as(I29
I5
I35
tp4181
(lp4182
I14
aI22
as(I42
I50
I2
tp4183
(lp4184
I46
as(I12
I25
I42
tp4185
(lp4186
I24
as(I50
I42
I27
tp4187
(lp4188
I19
aI43
as(I47
I42
I17
tp4189
(lp4190
I42
as(I35
I49
I27
tp4191
(lp4192
I43
as(I26
I23
I34
tp4193
(lp4194
I1
aI33
as(I22
I48
I25
tp4195
(lp4196
I24
as(I10
I34
I36
tp4197
(lp4198
I30
as(I7
I44
I12
tp4199
(lp4200
I15
as(I49
I4
I31
tp4201
(lp4202
I41
aI50
as(I46
I24
I1
tp4203
(lp4204
I30
as(I1
I43
I15
tp4205
(lp4206
I45
as(I14
I47
I14
tp4207
(lp4208
I16
aI35
aI36
aI37
as(I33
I24
I12
tp4209
(lp4210
I17
as(I10
I16
I48
tp4211
(lp4212
I22
as(I1
I32
I11
tp4213
(lp4214
I36
aI44
as(I17
I20
I19
tp4215
(lp4216
I38
as(I43
I44
I11
tp4217
(lp4218
I44
as(I4
I33
I2
tp4219
(lp4220
I12
as(I30
I2
I11
tp4221
(lp4222
I19
as(I21
I5
I26
tp4223
(lp4224
I13
as(I23
I30
I33
tp4225
(lp4226
I7
aI34
as(I50
I31
I6
tp4227
(lp4228
I44
as(I40
I25
I21
tp4229
(lp4230
I6
as(I22
I27
I9
tp4231
(lp4232
I21
as(I13
I15
I12
tp4233
(lp4234
I15
as(I1
I32
I4
tp4235
(lp4236
I5
as(I9
I25
I22
tp4237
(lp4238
I16
aI35
aI48
as(I8
I26
I33
tp4239
(lp4240
I7
as(I15
I19
I16
tp4241
(lp4242
I27
as(I47
I37
I45
tp4243
(lp4244
I20
aI27
as(I42
I47
I17
tp4245
(lp4246
I12
aI34
aI46
as(I19
I36
I19
tp4247
(lp4248
I11
aI27
aI37
aI38
as(I44
I7
I38
tp4249
(lp4250
I7
as(I47
I14
I25
tp4251
(lp4252
I24
aI35
as(I44
I14
I27
tp4253
(lp4254
I16
as(I41
I42
I25
tp4255
(lp4256
I24
as(I4
I8
I15
tp4257
(lp4258
I8
as(I40
I17
I34
tp4259
(lp4260
I17
as(I34
I10
I26
tp4261
(lp4262
I13
as(I9
I10
I13
tp4263
(lp4264
I4
as(I4
I18
I9
tp4265
(lp4266
I22
aI40
as(I12
I3
I47
tp4267
(lp4268
I41
as(I20
I17
I47
tp4269
(lp4270
I46
as(I36
I20
I45
tp4271
(lp4272
I20
as(I15
I19
I7
tp4273
(lp4274
I38
as(I33
I4
I2
tp4275
(lp4276
I13
as(I14
I9
I22
tp4277
(lp4278
I9
aI48
as(I47
I7
I46
tp4279
(lp4280
I2
aI17
as(I11
I25
I23
tp4281
(lp4282
I25
as(I9
I14
I27
tp4283
(lp4284
I19
as(I32
I23
I50
tp4285
(lp4286
I40
as(I43
I44
I28
tp4287
(lp4288
I5
aI8
aI21
as(I39
I16
I39
tp4289
(lp4290
I3
aI20
aI29
aI32
as(I30
I2
I34
tp4291
(lp4292
I17
as(I32
I1
I44
tp4293
(lp4294
I6
aI11
as(I46
I48
I24
tp4295
(lp4296
I48
as(I2
I7
I13
tp4297
(lp4298
I26
aI40
as(I15
I33
I12
tp4299
(lp4300
I2
aI7
aI17
as(I23
I26
I6
tp4301
(lp4302
I26
aI44
as(I37
I12
I17
tp4303
(lp4304
I12
aI46
as(I22
I27
I18
tp4305
(lp4306
I45
aI49
as(I32
I10
I32
tp4307
(lp4308
I5
aI18
aI39
aI44
as(I28
I34
I5
tp4309
(lp4310
I4
aI36
as(I8
I4
I8
tp4311
(lp4312
I1
aI11
aI15
aI28
as(I42
I47
I42
tp4313
(lp4314
I17
aI24
aI37
aI43
as(I23
I32
I30
tp4315
(lp4316
I26
aI36
as(I19
I37
I20
tp4317
(lp4318
I37
as(I7
I44
I30
tp4319
(lp4320
I36
as(I5
I11
I30
tp4321
(lp4322
I1
aI36
as(I39
I29
I44
tp4323
(lp4324
I31
as(I41
I42
I50
tp4325
(lp4326
I46
as(I41
I36
I14
tp4327
(lp4328
I36
as(I40
I28
I4
tp4329
(lp4330
I5
as(I16
I13
I50
tp4331
(lp4332
I40
as(I34
I10
I1
tp4333
(lp4334
I23
as(I27
I21
I11
tp4335
(lp4336
I8
aI44
as(I21
I24
I25
tp4337
(lp4338
I24
as(I8
I50
I9
tp4339
(lp4340
I40
as(I11
I40
I6
tp4341
(lp4342
I23
aI26
as(I23
I32
I8
tp4343
(lp4344
I11
aI28
as(I33
I15
I33
tp4345
(lp4346
I7
aI23
aI34
aI40
as(I2
I30
I15
tp4347
(lp4348
I8
as(I40
I11
I31
tp4349
(lp4350
I44
as(I29
I5
I3
tp4351
(lp4352
I10
aI39
as(I42
I50
I34
tp4353
(lp4354
I33
as(I47
I7
I25
tp4355
(lp4356
I23
aI24
as(I40
I11
I9
tp4357
(lp4358
I4
aI21
as(I33
I24
I34
tp4359
(lp4360
I1
aI17
as(I30
I16
I37
tp4361
(lp4362
I14
as(I3
I12
I48
tp4363
(lp4364
I24
as(I47
I42
I49
tp4365
(lp4366
I43
as(I46
I48
I35
tp4367
(lp4368
I22
as(I45
I18
I5
tp4369
(lp4370
I32
as(I29
I22
I24
tp4371
(lp4372
I48
as(I20
I45
I39
tp4373
(lp4374
I32
as(I18
I45
I46
tp4375
(lp4376
I47
as(I6
I27
I19
tp4377
(lp4378
I27
as(I25
I9
I35
tp4379
(lp4380
I14
aI22
as(I5
I28
I44
tp4381
(lp4382
I6
aI11
as(I13
I50
I17
tp4383
(lp4384
I46
as(I37
I12
I46
tp4385
(lp4386
I2
as(I14
I44
I6
tp4387
(lp4388
I44
as(I41
I2
I10
tp4389
(lp4390
I4
aI34
as(I30
I16
I48
tp4391
(lp4392
I22
as(I18
I1
I36
tp4393
(lp4394
I30
as(I20
I31
I44
tp4395
(lp4396
I31
as(I47
I37
I27
tp4397
(lp4398
I19
as(I30
I23
I36
tp4399
(lp4400
I11
as(I31
I50
I49
tp4401
(lp4402
I43
aI50
as(I44
I7
I20
tp4403
(lp4404
I38
as(I47
I14
I47
tp4405
(lp4406
I15
aI25
aI41
aI46
as(I23
I30
I1
tp4407
(lp4408
I8
aI30
as(I6
I38
I19
tp4409
(lp4410
I37
aI38
as(I16
I13
I27
tp4411
(lp4412
I19
as(I27
I6
I45
tp4413
(lp4414
I18
as(I3
I31
I18
tp4415
(lp4416
I49
as(I42
I18
I14
tp4417
(lp4418
I16
as(I2
I30
I38
tp4419
(lp4420
I7
aI19
as(I11
I5
I27
tp4421
(lp4422
I43
as(I1
I18
I11
tp4423
(lp4424
I44
as(I18
I45
I49
tp4425
(lp4426
I43
aI50
as(I16
I10
I49
tp4427
(lp4428
I31
as(I27
I22
I28
tp4429
(lp4430
I21
as(I20
I45
I16
tp4431
(lp4432
I18
aI27
as(I12
I3
I15
tp4433
(lp4434
I45
aI47
as(I31
I20
I31
tp4435
(lp4436
I41
aI44
aI49
aI50
as(I38
I35
I14
tp4437
(lp4438
I35
as(I35
I49
I18
tp4439
(lp4440
I49
as(I20
I17
I15
tp4441
(lp4442
I12
aI47
as(I22
I48
I16
tp4443
(lp4444
I18
as(I45
I20
I42
tp4445
(lp4446
I37
as(I40
I11
I38
tp4447
(lp4448
I19
as(I29
I3
I24
tp4449
(lp4450
I48
as(I25
I11
I6
tp4451
(lp4452
I44
as(I5
I28
I5
tp4453
(lp4454
I4
aI28
aI32
aI36
as(I13
I50
I10
tp4455
(lp4456
I41
as(I17
I20
I17
tp4457
(lp4458
I12
aI34
aI42
aI46
as(I2
I41
I4
tp4459
(lp4460
I10
as(I19
I37
I32
tp4461
(lp4462
I39
as(I3
I29
I35
tp4463
(lp4464
I29
as(I28
I39
I21
tp4465
(lp4466
I6
aI48
as(I9
I14
I4
tp4467
(lp4468
I5
as(I30
I23
I13
tp4469
(lp4470
I40
as(I8
I21
I11
tp4471
(lp4472
I36
aI44
as(I38
I6
I7
tp4473
(lp4474
I26
aI33
as(I19
I15
I12
tp4475
(lp4476
I15
as(I40
I25
I46
tp4477
(lp4478
I47
as(I24
I21
I9
tp4479
(lp4480
I21
as(I32
I23
I35
tp4481
(lp4482
I25
as(I27
I6
I21
tp4483
(lp4484
I6
as(I16
I39
I14
tp4485
(lp4486
I35
aI37
as(I25
I40
I13
tp4487
(lp4488
I40
as(I36
I14
I35
tp4489
(lp4490
I14
as(I9
I25
I33
tp4491
(lp4492
I23
as(I36
I19
I43
tp4493
(lp4494
I27
as(I42
I47
I10
tp4495
(lp4496
I41
as(I7
I47
I6
tp4497
(lp4498
I23
as(I47
I14
I22
tp4499
(lp4500
I16
as(I6
I45
I15
tp4501
(lp4502
I45
as(I17
I26
I24
tp4503
(lp4504
I30
as(I22
I29
I48
tp4505
(lp4506
I3
aI24
as(I40
I17
I43
tp4507
(lp4508
I42
as(I34
I10
I33
tp4509
(lp4510
I7
aI40
as(I46
I48
I3
tp4511
(lp4512
I48
as(I11
I25
I24
tp4513
(lp4514
I25
as(I4
I18
I16
tp4515
(lp4516
I18
as(I33
I15
I25
tp4517
(lp4518
I47
as(I41
I19
I37
tp4519
(lp4520
I19
as(I29
I22
I3
tp4521
(lp4522
I10
aI48
as(I11
I40
I38
tp4523
(lp4524
I2
aI7
as(I32
I6
I32
tp4525
(lp4526
I5
aI18
aI39
aI44
as(I24
I34
I26
tp4527
(lp4528
I7
as(I8
I21
I36
tp4529
(lp4530
I5
as(I11
I5
I44
tp4531
(lp4532
I6
aI32
as(I37
I47
I25
tp4533
(lp4534
I47
as(I17
I20
I43
tp4535
(lp4536
I27
as(I50
I31
I50
tp4537
(lp4538
I31
aI40
aI46
aI49
as(I18
I42
I19
tp4539
(lp4540
I37
as(I28
I5
I49
tp4541
(lp4542
I18
as(I1
I49
I41
tp4543
(lp4544
I31
as(I11
I25
I11
tp4545
(lp4546
I8
aI19
aI36
aI44
as(I18
I1
I18
tp4547
(lp4548
I16
aI32
aI45
aI49
as(I27
I3
I19
tp4549
(lp4550
I37
as(I43
I44
I5
tp4551
(lp4552
I32
as(I14
I36
I37
tp4553
(lp4554
I19
aI42
as(I23
I43
I23
tp4555
(lp4556
I1
aI6
aI25
aI33
as(I45
I18
I37
tp4557
(lp4558
I14
as(I38
I6
I30
tp4559
(lp4560
I1
as(I18
I45
I14
tp4561
(lp4562
I37
as(I46
I17
I42
tp4563
(lp4564
I17
as(I26
I44
I6
tp4565
(lp4566
I44
as(I17
I46
I50
tp4567
(lp4568
I46
as(I21
I27
I28
tp4569
(lp4570
I8
aI43
as(I48
I13
I10
tp4571
(lp4572
I4
as(I13
I16
I2
tp4573
(lp4574
I38
as(I37
I19
I32
tp4575
(lp4576
I44
as(I28
I34
I28
tp4577
(lp4578
I5
aI8
aI21
aI43
as(I3
I29
I20
tp4579
(lp4580
I37
as(I15
I13
I10
tp4581
(lp4582
I4
as(I42
I47
I35
tp4583
(lp4584
I25
as(I7
I47
I17
tp4585
(lp4586
I46
as(I31
I50
I17
tp4587
(lp4588
I46
as(I5
I11
I21
tp4589
(lp4590
I6
as(I47
I14
I15
tp4591
(lp4592
I8
aI45
as(I39
I29
I35
tp4593
(lp4594
I29
as(I41
I42
I43
tp4595
(lp4596
I42
as(I17
I26
I1
tp4597
(lp4598
I30
as(I34
I10
I34
tp4599
(lp4600
I1
aI10
aI17
aI33
as(I38
I6
I1
tp4601
(lp4602
I23
as(I33
I4
I9
tp4603
(lp4604
I4
as(I18
I4
I3
tp4605
(lp4606
I10
as(I23
I32
I1
tp4607
(lp4608
I8
aI30
as(I39
I11
I39
tp4609
(lp4610
I20
aI29
aI32
as(I48
I46
I10
tp4611
(lp4612
I34
aI41
as(I14
I9
I4
tp4613
(lp4614
I9
as(I1
I18
I43
tp4615
(lp4616
I49
as(I42
I50
I41
tp4617
(lp4618
I31
as(I34
I28
I9
tp4619
(lp4620
I21
as(I9
I14
I37
tp4621
(lp4622
I14
as(I3
I12
I41
tp4623
(lp4624
I47
as(I20
I36
I32
tp4625
(lp4626
I5
as(I38
I35
I46
tp4627
(lp4628
I47
as(I35
I49
I50
tp4629
(lp4630
I49
as(I25
I12
I7
tp4631
(lp4632
I12
as(I41
I36
I35
tp4633
(lp4634
I14
as(I10
I32
I39
tp4635
(lp4636
I20
aI32
as(I31
I38
I32
tp4637
(lp4638
I39
as(I3
I31
I33
tp4639
(lp4640
I40
as(I6
I27
I28
tp4641
(lp4642
I43
as(I15
I33
I2
tp4643
(lp4644
I13
as(I44
I26
I38
tp4645
(lp4646
I7
as(I43
I1
I17
tp4647
(lp4648
I34
as(I14
I44
I25
tp4649
(lp4650
I23
as(I12
I37
I19
tp4651
(lp4652
I37
as(I9
I7
I6
tp4653
(lp4654
I23
aI26
as(I37
I19
I15
tp4655
(lp4656
I8
as(I3
I29
I3
tp4657
(lp4658
I10
aI29
aI39
aI48
as(I20
I31
I37
tp4659
(lp4660
I42
as(I38
I46
I37
tp4661
(lp4662
I42
as(I8
I4
I30
tp4663
(lp4664
I26
aI36
as(I31
I50
I6
tp4665
(lp4666
I26
as(I5
I11
I44
tp4667
(lp4668
I11
as(I47
I14
I36
tp4669
(lp4670
I14
as(I23
I30
I14
tp4671
(lp4672
I36
as(I40
I28
I50
tp4673
(lp4674
I31
aI49
as(I36
I41
I4
tp4675
(lp4676
I10
as(I31
I3
I44
tp4677
(lp4678
I6
aI32
as(I9
I10
I40
tp4679
(lp4680
I13
aI33
aI50
as(I21
I27
I37
tp4681
(lp4682
I19
as(I14
I36
I1
tp4683
(lp4684
I30
as(I1
I32
I6
tp4685
(lp4686
I44
as(I6
I38
I26
tp4687
(lp4688
I7
aI13
aI30
as(I17
I46
I41
tp4689
(lp4690
I47
as(I36
I19
I11
tp4691
(lp4692
I19
as(I39
I11
I14
tp4693
(lp4694
I36
as(I11
I5
I18
tp4695
(lp4696
I32
as(I50
I13
I50
tp4697
(lp4698
I31
aI40
aI46
as(I7
I47
I38
tp4699
(lp4700
I2
aI20
as(I23
I26
I24
tp4701
(lp4702
I30
as(I20
I45
I18
tp4703
(lp4704
I45
as(I28
I34
I43
tp4705
(lp4706
I42
as(I49
I1
I33
tp4707
(lp4708
I34
as(I22
I29
I16
tp4709
(lp4710
I14
aI18
as(I27
I22
I21
tp4711
(lp4712
I9
aI48
as(I29
I39
I32
tp4713
(lp4714
I39
as(I3
I12
I2
tp4715
(lp4716
I12
as(I27
I3
I37
tp4717
(lp4718
I20
as(I12
I3
I4
tp4719
(lp4720
I10
as(I38
I35
I7
tp4721
(lp4722
I33
as(I35
I49
I9
tp4723
(lp4724
I40
as(I46
I48
I42
tp4725
(lp4726
I24
as(I23
I43
I33
tp4727
(lp4728
I34
aI40
as(I41
I2
I34
tp4729
(lp4730
I17
as(I8
I21
I4
tp4731
(lp4732
I9
as(I49
I4
I13
tp4733
(lp4734
I4
as(I6
I45
I28
tp4735
(lp4736
I43
as(I5
I28
I18
tp4737
(lp4738
I49
as(I5
I21
I39
tp4739
(lp4740
I3
as(I14
I47
I24
tp4741
(lp4742
I25
as(I2
I41
I13
tp4743
(lp4744
I4
aI40
as(I37
I47
I42
tp4745
(lp4746
I17
aI24
as(I35
I43
I41
tp4747
(lp4748
I31
as(I32
I23
I11
tp4749
(lp4750
I8
as(I20
I31
I50
tp4751
(lp4752
I31
as(I3
I27
I22
tp4753
(lp4754
I16
as(I32
I1
I5
tp4755
(lp4756
I4
aI28
aI36
as(I31
I50
I47
tp4757
(lp4758
I46
as(I44
I7
I26
tp4759
(lp4760
I7
aI13
as(I50
I8
I34
tp4761
(lp4762
I1
as(I2
I7
I38
tp4763
(lp4764
I7
as(I23
I30
I23
tp4765
(lp4766
I1
aI6
aI25
aI33
as(I19
I15
I7
tp4767
(lp4768
I12
as(I36
I41
I29
tp4769
(lp4770
I41
as(I46
I17
I10
tp4771
(lp4772
I34
as(I26
I44
I38
tp4773
(lp4774
I19
as(I16
I13
I3
tp4775
(lp4776
I10
as(I27
I21
I48
tp4777
(lp4778
I21
as(I25
I40
I26
tp4779
(lp4780
I13
as(I13
I15
I26
tp4781
(lp4782
I7
aI30
as(I43
I35
I21
tp4783
(lp4784
I9
as(I8
I50
I34
tp4785
(lp4786
I17
as(I12
I25
I15
tp4787
(lp4788
I8
aI47
as(I28
I40
I21
tp4789
(lp4790
I6
aI9
as(I4
I49
I32
tp4791
(lp4792
I18
as(I23
I26
I33
tp4793
(lp4794
I7
aI34
aI40
as(I29
I5
I44
tp4795
(lp4796
I32
as(I39
I29
I3
tp4797
(lp4798
I10
aI29
aI48
as(I17
I26
I33
tp4799
(lp4800
I7
as(I34
I30
I23
tp4801
(lp4802
I1
aI6
as(I34
I10
I40
tp4803
(lp4804
I9
aI13
as(I11
I39
I8
tp4805
(lp4806
I15
as(I50
I42
I16
tp4807
(lp4808
I27
as(I20
I36
I14
tp4809
(lp4810
I36
as(I38
I35
I16
tp4811
(lp4812
I22
as(I10
I34
I33
tp4813
(lp4814
I34
as(I28
I40
I49
tp4815
(lp4816
I31
aI50
as(I14
I9
I36
tp4817
(lp4818
I5
as(I46
I24
I10
tp4819
(lp4820
I3
as(I5
I28
I11
tp4821
(lp4822
I8
as(I2
I41
I50
tp4823
(lp4824
I31
aI49
as(I9
I14
I5
tp4825
(lp4826
I36
as(I20
I31
I32
tp4827
(lp4828
I18
aI44
as(I18
I1
I11
tp4829
(lp4830
I8
as(I21
I8
I34
tp4831
(lp4832
I1
as(I45
I6
I7
tp4833
(lp4834
I26
as(I20
I45
I19
tp4835
(lp4836
I27
as(I38
I6
I21
tp4837
(lp4838
I6
as(I9
I10
I4
tp4839
(lp4840
I10
as(I15
I33
I34
tp4841
(lp4842
I33
as(I13
I48
I22
tp4843
(lp4844
I48
as(I37
I12
I7
tp4845
(lp4846
I12
as(I43
I23
I6
tp4847
(lp4848
I23
as(I21
I27
I11
tp4849
(lp4850
I19
as(I13
I16
I27
tp4851
(lp4852
I16
as(I28
I34
I23
tp4853
(lp4854
I1
aI33
as(I42
I18
I43
tp4855
(lp4856
I27
aI28
aI49
as(I15
I13
I17
tp4857
(lp4858
I46
as(I31
I38
I31
tp4859
(lp4860
I41
aI44
aI49
aI50
as(I33
I48
I26
tp4861
(lp4862
I6
as(I44
I14
I20
tp4863
(lp4864
I37
as(I6
I38
I7
tp4865
(lp4866
I12
aI38
as(I17
I20
I7
tp4867
(lp4868
I38
as(I36
I41
I36
tp4869
(lp4870
I5
aI11
aI14
aI30
as(I19
I41
I14
tp4871
(lp4872
I35
as(I34
I10
I23
tp4873
(lp4874
I25
as(I7
I2
I46
tp4875
(lp4876
I2
as(I48
I22
I24
tp4877
(lp4878
I25
aI42
as(I32
I6
I18
tp4879
(lp4880
I49
as(I20
I17
I34
tp4881
(lp4882
I17
as(I41
I2
I20
tp4883
(lp4884
I38
as(I4
I49
I31
tp4885
(lp4886
I49
as(I39
I16
I5
tp4887
(lp4888
I36
as(I40
I11
I13
tp4889
(lp4890
I26
as(I1
I18
I36
tp4891
(lp4892
I5
aI14
as(I24
I34
I24
tp4893
(lp4894
I25
aI30
aI42
aI48
as(I34
I28
I48
tp4895
(lp4896
I21
as(I14
I47
I42
tp4897
(lp4898
I17
aI24
as(I3
I12
I34
tp4899
(lp4900
I17
aI33
as(I6
I38
I44
tp4901
(lp4902
I11
aI32
as(I15
I2
I15
tp4903
(lp4904
I8
aI12
aI45
aI47
as(I38
I35
I39
tp4905
(lp4906
I3
aI29
as(I35
I49
I41
tp4907
(lp4908
I31
as(I23
I43
I1
tp4909
(lp4910
I8
aI30
aI34
as(I29
I22
I10
tp4911
(lp4912
I4
as(I50
I8
I28
tp4913
(lp4914
I8
as(I23
I32
I35
tp4915
(lp4916
I29
as(I47
I37
I2
tp4917
(lp4918
I38
as(I48
I46
I41
tp4919
(lp4920
I47
as(I45
I6
I19
tp4921
(lp4922
I11
as(I50
I31
I42
tp4923
(lp4924
I43
as(I40
I25
I9
tp4925
(lp4926
I21
aI22
as(I16
I10
I9
tp4927
(lp4928
I4
as(I43
I1
I24
tp4929
(lp4930
I25
aI30
as(I38
I31
I2
tp4931
(lp4932
I13
aI46
as(I22
I27
I45
tp4933
(lp4934
I27
as(I12
I37
I12
tp4935
(lp4936
I2
aI7
aI15
aI17
as(I48
I13
I4
tp4937
(lp4938
I13
as(I9
I7
I13
tp4939
(lp4940
I2
aI26
as(I9
I25
I10
tp4941
(lp4942
I41
as(I20
I31
I18
tp4943
(lp4944
I32
aI49
as(I8
I4
I5
tp4945
(lp4946
I4
as(I46
I24
I17
tp4947
(lp4948
I34
aI42
as(I19
I37
I17
tp4949
(lp4950
I42
as(I5
I11
I27
tp4951
(lp4952
I19
as(I6
I38
I30
tp4953
(lp4954
I36
as(I41
I36
I5
tp4955
(lp4956
I36
as(I44
I26
I4
tp4957
(lp4958
I13
as(I27
I21
I16
tp4959
(lp4960
I22
as(I21
I24
I28
tp4961
(lp4962
I8
aI43
as(I9
I10
I33
tp4963
(lp4964
I34
as(I7
I9
I6
tp4965
(lp4966
I21
as(I11
I40
I1
tp4967
(lp4968
I34
as(I32
I6
I5
tp4969
(lp4970
I4
aI28
aI36
as(I42
I18
I28
tp4971
(lp4972
I5
as(I36
I19
I16
tp4973
(lp4974
I27
as(I39
I16
I27
tp4975
(lp4976
I16
as(I40
I11
I26
tp4977
(lp4978
I6
as(I23
I26
I1
tp4979
(lp4980
I30
aI34
as(I39
I28
I5
tp4981
(lp4982
I28
as(I42
I50
I31
tp4983
(lp4984
I50
as(I5
I29
I35
tp4985
(lp4986
I29
as(I22
I29
I25
tp4987
(lp4988
I35
aI47
as(I28
I5
I28
tp4989
(lp4990
I5
aI8
aI21
aI43
as(I1
I49
I18
tp4991
(lp4992
I49
as(I41
I2
I39
tp4993
(lp4994
I20
as(I31
I20
I49
tp4995
(lp4996
I18
aI43
as(I23
I43
I40
tp4997
(lp4998
I50
as(I10
I32
I49
tp4999
(lp5000
I18
as(I30
I16
I19
tp5001
(lp5002
I27
as(I6
I45
I20
tp5003
(lp5004
I45
as(I18
I45
I37
tp5005
(lp5006
I20
as(I48
I46
I48
tp5007
(lp5008
I3
aI21
aI22
aI24
as(I10
I9
I13
tp5009
(lp5010
I40
as(I11
I25
I30
tp5011
(lp5012
I1
aI24
as(I38
I31
I43
tp5013
(lp5014
I49
as(I14
I44
I11
tp5015
(lp5016
I44
as(I14
I47
I17
tp5017
(lp5018
I46
as(I18
I1
I43
tp5019
(lp5020
I28
as(I20
I31
I43
tp5021
(lp5022
I49
as(I15
I13
I47
tp5023
(lp5024
I41
aI46
as(I45
I6
I39
tp5025
(lp5026
I32
as(I32
I1
I30
tp5027
(lp5028
I1
as(I44
I7
I19
tp5029
(lp5030
I38
as(I47
I14
I42
tp5031
(lp5032
I37
as(I6
I45
I25
tp5033
(lp5034
I47
as(I41
I19
I49
tp5035
(lp5036
I43
as(I6
I32
I5
tp5037
(lp5038
I32
as(I16
I13
I30
tp5039
(lp5040
I26
as(I40
I25
I48
tp5041
(lp5042
I24
as(I44
I43
I21
tp5043
(lp5044
I28
as(I14
I36
I14
tp5045
(lp5046
I16
aI35
aI36
aI37
as(I21
I27
I43
tp5047
(lp5048
I27
aI42
as(I13
I15
I17
tp5049
(lp5050
I12
as(I8
I50
I45
tp5051
(lp5052
I18
as(I1
I43
I5
tp5053
(lp5054
I28
as(I28
I40
I28
tp5055
(lp5056
I5
aI8
aI21
aI43
as(I40
I17
I33
tp5057
(lp5058
I7
aI23
aI34
as(I4
I49
I41
tp5059
(lp5060
I31
as(I32
I10
I5
tp5061
(lp5062
I4
aI28
as(I29
I5
I39
tp5063
(lp5064
I3
aI32
as(I6
I38
I39
tp5065
(lp5066
I20
as(I17
I26
I42
tp5067
(lp5068
I24
as(I24
I46
I1
tp5069
(lp5070
I34
as(I10
I32
I18
tp5071
(lp5072
I32
as(I33
I15
I47
tp5073
(lp5074
I15
as(I47
I42
I45
tp5075
(lp5076
I27
as(I20
I36
I5
tp5077
(lp5078
I36
as(I20
I17
I2
tp5079
(lp5080
I12
aI46
as(I36
I20
I18
tp5081
(lp5082
I45
as(I22
I48
I29
tp5083
(lp5084
I3
aI39
as(I10
I34
I40
tp5085
(lp5086
I33
as(I18
I45
I50
tp5087
(lp5088
I46
as(I29
I3
I5
tp5089
(lp5090
I4
as(I10
I9
I34
tp5091
(lp5092
I33
as(I13
I50
I13
tp5093
(lp5094
I2
aI4
aI26
aI40
as(I10
I34
I4
tp5095
(lp5096
I5
aI9
aI13
as(I23
I43
I24
tp5097
(lp5098
I42
as(I32
I23
I25
tp5099
(lp5100
I23
as(I3
I27
I24
tp5101
(lp5102
I42
as(I30
I2
I7
tp5103
(lp5104
I12
aI38
as(I19
I37
I39
tp5105
(lp5106
I20
as(I5
I21
I4
tp5107
(lp5108
I9
aI10
aI13
as(I48
I13
I22
tp5109
(lp5110
I9
as(I2
I7
I40
tp5111
(lp5112
I33
as(I38
I6
I12
tp5113
(lp5114
I7
as(I6
I32
I28
tp5115
(lp5116
I5
as(I25
I9
I21
tp5117
(lp5118
I9
as(I46
I17
I24
tp5119
(lp5120
I42
as(I26
I44
I40
tp5121
(lp5122
I50
as(I38
I6
I11
tp5123
(lp5124
I44
as(I43
I23
I25
tp5125
(lp5126
I23
as(I13
I48
I3
tp5127
(lp5128
I48
as(I13
I15
I8
tp5129
(lp5130
I15
as(I36
I14
I44
tp5131
(lp5132
I32
as(I1
I43
I28
tp5133
(lp5134
I43
as(I38
I46
I12
tp5135
(lp5136
I2
aI15
aI17
as(I47
I37
I41
tp5137
(lp5138
I29
as(I47
I14
I29
tp5139
(lp5140
I35
as(I44
I14
I31
tp5141
(lp5142
I41
as(I41
I42
I29
tp5143
(lp5144
I39
as(I49
I1
I10
tp5145
(lp5146
I34
as(I22
I45
I25
tp5147
(lp5148
I47
as(I21
I5
I48
tp5149
(lp5150
I22
as(I18
I42
I14
tp5151
(lp5152
I37
as(I29
I39
I5
tp5153
(lp5154
I32
as(I33
I4
I23
tp5155
(lp5156
I1
aI6
as(I47
I42
I2
tp5157
(lp5158
I12
as(I31
I20
I3
tp5159
(lp5160
I39
as(I11
I40
I33
tp5161
(lp5162
I40
as(I20
I17
I43
tp5163
(lp5164
I42
as(I24
I34
I23
tp5165
(lp5166
I1
aI33
as(I41
I2
I29
tp5167
(lp5168
I39
as(I45
I20
I14
tp5169
(lp5170
I37
as(I44
I7
I31
tp5171
(lp5172
I50
as(I17
I20
I46
tp5173
(lp5174
I2
as(I17
I40
I13
tp5175
(lp5176
I40
as(I5
I29
I3
tp5177
(lp5178
I29
as(I14
I47
I35
tp5179
(lp5180
I25
aI29
as(I16
I30
I35
tp5181
(lp5182
I14
aI25
as(I1
I49
I50
tp5183
(lp5184
I49
as(I33
I15
I17
tp5185
(lp5186
I12
aI46
as(I27
I3
I28
tp5187
(lp5188
I21
as(I4
I33
I23
tp5189
(lp5190
I33
as(I32
I1
I32
tp5191
(lp5192
I5
aI18
aI44
as(I35
I49
I32
tp5193
(lp5194
I18
as(I23
I43
I8
tp5195
(lp5196
I28
as(I15
I2
I19
tp5197
(lp5198
I38
as(I41
I19
I31
tp5199
(lp5200
I44
aI49
as(I3
I31
I34
tp5201
(lp5202
I33
as(I46
I17
I33
tp5203
(lp5204
I34
as(I13
I48
I4
tp5205
(lp5206
I5
aI9
aI10
as(I43
I1
I15
tp5207
(lp5208
I8
as(I38
I31
I11
tp5209
(lp5210
I44
as(I22
I27
I22
tp5211
(lp5212
I9
aI16
aI35
aI48
as(I25
I40
I33
tp5213
(lp5214
I40
as(I13
I16
I9
tp5215
(lp5216
I21
aI22
as(I28
I34
I1
tp5217
(lp5218
I23
aI34
as(I37
I19
I45
tp5219
(lp5220
I15
aI27
as(I15
I13
I15
tp5221
(lp5222
I12
aI45
aI47
as(I42
I47
I46
tp5223
(lp5224
I47
as(I20
I45
I20
tp5225
(lp5226
I37
aI38
aI39
aI45
as(I22
I45
I35
tp5227
(lp5228
I14
aI25
aI29
as(I48
I33
I22
tp5229
(lp5230
I9
aI35
as(I9
I25
I21
tp5231
(lp5232
I6
aI48
as(I41
I36
I10
tp5233
(lp5234
I4
aI34
as(I13
I16
I40
tp5235
(lp5236
I9
aI50
as(I4
I8
I26
tp5237
(lp5238
I30
as(I27
I21
I15
tp5239
(lp5240
I8
as(I21
I24
I21
tp5241
(lp5242
I6
aI9
aI28
aI48
as(I33
I4
I12
tp5243
(lp5244
I2
as(I11
I39
I45
tp5245
(lp5246
I20
as(I48
I22
I10
tp5247
(lp5248
I4
as(I7
I9
I13
tp5249
(lp5250
I4
aI40
as(I32
I6
I28
tp5251
(lp5252
I21
as(I26
I23
I24
tp5253
(lp5254
I25
as(I4
I49
I9
tp5255
(lp5256
I21
aI40
as(I2
I30
I11
tp5257
(lp5258
I36
as(I37
I47
I37
tp5259
(lp5260
I14
aI19
aI20
aI42
as(I40
I11
I19
tp5261
(lp5262
I11
as(I22
I29
I14
tp5263
(lp5264
I35
as(I28
I5
I21
tp5265
(lp5266
I6
aI9
as(I10
I16
I14
tp5267
(lp5268
I16
as(I19
I37
I42
tp5269
(lp5270
I37
as(I3
I27
I42
tp5271
(lp5272
I43
as(I20
I36
I37
tp5273
(lp5274
I14
aI19
aI42
as(I18
I45
I18
tp5275
(lp5276
I16
aI32
aI45
aI49
as(I47
I37
I35
tp5277
(lp5278
I14
as(I5
I28
I32
tp5279
(lp5280
I18
aI44
as(I17
I40
I42
tp5281
(lp5282
I43
as(I17
I40
I34
tp5283
(lp5284
I1
aI33
as(I43
I23
I43
tp5285
(lp5286
I28
aI42
aI49
as(I44
I43
I11
tp5287
(lp5288
I8
aI19
as(I35
I43
I27
tp5289
(lp5290
I43
as(I36
I14
I30
tp5291
(lp5292
I24
as(I18
I1
I32
tp5293
(lp5294
I5
aI44
as(I26
I17
I12
tp5295
(lp5296
I2
aI17
as(I15
I19
I43
tp5297
(lp5298
I27
as(I32
I1
I23
tp5299
(lp5300
I1
as(I44
I7
I8
tp5301
(lp5302
I15
as(I47
I14
I35
tp5303
(lp5304
I14
aI22
as(I38
I6
I44
tp5305
(lp5306
I6
as(I30
I34
I42
tp5307
(lp5308
I17
as(I36
I41
I15
tp5309
(lp5310
I47
as(I17
I46
I12
tp5311
(lp5312
I2
aI7
aI15
as(I21
I24
I42
tp5313
(lp5314
I24
as(I4
I18
I39
tp5315
(lp5316
I32
as(I13
I15
I40
tp5317
(lp5318
I33
as(I18
I4
I39
tp5319
(lp5320
I3
as(I16
I10
I16
tp5321
(lp5322
I14
aI18
aI22
as(I11
I40
I19
tp5323
(lp5324
I38
as(I36
I19
I14
tp5325
(lp5326
I16
aI37
as(I18
I4
I18
tp5327
(lp5328
I16
aI32
aI49
as(I4
I49
I50
tp5329
(lp5330
I31
aI49
as(I2
I30
I34
tp5331
(lp5332
I1
as(I1
I18
I15
tp5333
(lp5334
I45
as(I49
I1
I42
tp5335
(lp5336
I17
aI24
as(I19
I41
I49
tp5337
(lp5338
I31
as(I29
I39
I37
tp5339
(lp5340
I20
as(I39
I28
I42
tp5341
(lp5342
I43
as(I47
I42
I34
tp5343
(lp5344
I17
as(I50
I42
I50
tp5345
(lp5346
I31
aI40
aI46
aI49
as(I38
I35
I2
tp5347
(lp5348
I46
as(I35
I49
I14
tp5349
(lp5350
I16
as(I15
I19
I37
tp5351
(lp5352
I19
as(I30
I16
I5
tp5353
(lp5354
I32
as(I6
I45
I19
tp5355
(lp5356
I27
as(I11
I25
I44
tp5357
(lp5358
I6
as(I13
I50
I6
tp5359
(lp5360
I44
as(I5
I21
I32
tp5361
(lp5362
I39
aI44
as(I14
I44
I16
tp5363
(lp5364
I18
aI27
as(I44
I43
I16
tp5365
(lp5366
I27
as(I25
I12
I25
tp5367
(lp5368
I23
aI24
aI47
as(I21
I8
I48
tp5369
(lp5370
I24
as(I3
I29
I39
tp5371
(lp5372
I20
aI29
as(I45
I22
I25
tp5373
(lp5374
I35
as(I3
I27
I19
tp5375
(lp5376
I27
as(I12
I3
I48
tp5377
(lp5378
I3
as(I31
I50
I34
tp5379
(lp5380
I33
as(I29
I22
I35
tp5381
(lp5382
I14
aI22
aI25
as(I2
I7
I33
tp5383
(lp5384
I7
as(I30
I34
I1
tp5385
(lp5386
I23
aI34
as(I19
I15
I8
tp5387
(lp5388
I15
as(I40
I25
I34
tp5389
(lp5390
I1
as(I25
I40
I1
tp5391
(lp5392
I34
as(I39
I28
I4
tp5393
(lp5394
I5
as(I28
I34
I33
tp5395
(lp5396
I34
as(I8
I4
I44
tp5397
(lp5398
I32
as(I42
I47
I14
tp5399
(lp5400
I35
as(I19
I36
I32
tp5401
(lp5402
I5
as(I7
I47
I10
tp5403
(lp5404
I41
as(I23
I26
I36
tp5405
(lp5406
I30
as(I29
I5
I41
tp5407
(lp5408
I10
aI31
as(I44
I14
I6
tp5409
(lp5410
I26
as(I2
I15
I46
tp5411
(lp5412
I17
aI47
as(I46
I38
I47
tp5413
(lp5414
I15
as(I27
I6
I44
tp5415
(lp5416
I6
as(I4
I18
I28
tp5417
(lp5418
I43
as(I48
I22
I42
tp5419
(lp5420
I43
as(I47
I42
I27
tp5421
(lp5422
I43
as(I20
I36
I19
tp5423
(lp5424
I11
aI37
as(I38
I35
I27
tp5425
(lp5426
I16
as(I23
I32
I36
tp5427
(lp5428
I5
as(I36
I20
I32
tp5429
(lp5430
I39
as(I20
I45
I32
tp5431
(lp5432
I18
as(I8
I21
I32
tp5433
(lp5434
I5
as(I11
I5
I32
tp5435
(lp5436
I5
as(I15
I2
I11
tp5437
(lp5438
I19
as(I14
I9
I35
tp5439
(lp5440
I22
aI25
as(I49
I4
I41
tp5441
(lp5442
I10
as(I10
I9
I48
tp5443
(lp5444
I21
aI22
as(I34
I28
I34
tp5445
(lp5446
I1
aI10
aI17
aI33
as(I16
I30
I42
tp5447
(lp5448
I24
as(I27
I22
I35
tp5449
(lp5450
I22
as(I1
I49
I45
tp5451
(lp5452
I18
as(I32
I23
I39
tp5453
(lp5454
I29
as(I18
I1
I14
tp5455
(lp5456
I36
as(I28
I39
I6
tp5457
(lp5458
I44
as(I2
I7
I26
tp5459
(lp5460
I7
as(I34
I24
I48
tp5461
(lp5462
I24
as(I46
I17
I46
tp5463
(lp5464
I2
aI17
aI47
aI50
as(I26
I44
I26
tp5465
(lp5466
I6
aI7
aI13
aI30
as(I24
I21
I30
tp5467
(lp5468
I1
aI26
aI36
as(I37
I12
I2
tp5469
(lp5470
I12
as(I16
I39
I35
tp5471
(lp5472
I29
as(I21
I27
I16
tp5473
(lp5474
I27
as(I13
I16
I30
tp5475
(lp5476
I36
as(I37
I19
I36
tp5477
(lp5478
I11
as(I1
I43
I42
tp5479
(lp5480
I43
as(I42
I41
I47
tp5481
(lp5482
I41
as(I38
I46
I2
tp5483
(lp5484
I12
aI13
aI46
as(I26
I8
I5
tp5485
(lp5486
I28
as(I33
I24
I42
tp5487
(lp5488
I24
as(I7
I44
I11
tp5489
(lp5490
I44
as(I44
I7
I40
tp5491
(lp5492
I33
as(I39
I29
I31
tp5493
(lp5494
I41
as(I41
I42
I47
tp5495
(lp5496
I15
aI25
aI46
as(I49
I1
I28
tp5497
(lp5498
I8
as(I40
I28
I23
tp5499
(lp5500
I6
as(I36
I41
I47
tp5501
(lp5502
I41
as(I27
I21
I6
tp5503
(lp5504
I21
as(I11
I39
I36
tp5505
(lp5506
I5
aI14
as(I48
I22
I29
tp5507
(lp5508
I35
as(I20
I45
I15
tp5509
(lp5510
I45
as(I15
I19
I11
tp5511
(lp5512
I19
as(I10
I34
I23
tp5513
(lp5514
I1
as(I20
I17
I37
tp5515
(lp5516
I42
as(I4
I49
I18
tp5517
(lp5518
I49
as(I2
I30
I2
tp5519
(lp5520
I12
aI13
aI38
aI46
as(I50
I13
I41
tp5521
(lp5522
I10
as(I40
I11
I8
tp5523
(lp5524
I11
as(I42
I50
I45
tp5525
(lp5526
I18
as(I14
I47
I45
tp5527
(lp5528
I15
as(I4
I49
I13
tp5529
(lp5530
I2
aI40
as(I35
I38
I20
tp5531
(lp5532
I38
as(I27
I3
I14
tp5533
(lp5534
I35
as(I3
I27
I37
tp5535
(lp5536
I19
as(I45
I6
I27
tp5537
(lp5538
I19
aI43
as(I35
I49
I46
tp5539
(lp5540
I50
as(I46
I48
I46
tp5541
(lp5542
I17
aI47
aI50
as(I29
I22
I21
tp5543
(lp5544
I9
as(I50
I8
I17
tp5545
(lp5546
I34
as(I18
I45
I27
tp5547
(lp5548
I19
aI45
as(I6
I27
I32
tp5549
(lp5550
I18
as(I48
I46
I34
tp5551
(lp5552
I17
as(I3
I31
I10
tp5553
(lp5554
I34
aI41
as(I37
I12
I27
tp5555
(lp5556
I45
as(I16
I13
I9
tp5557
(lp5558
I4
aI40
as(I43
I23
I34
tp5559
(lp5560
I1
aI33
as(I35
I43
I18
tp5561
(lp5562
I49
as(I9
I7
I10
tp5563
(lp5564
I34
as(I25
I12
I30
tp5565
(lp5566
I26
as(I47
I37
I14
tp5567
(lp5568
I37
as(I30
I16
I22
tp5569
(lp5570
I16
as(I19
I37
I14
tp5571
(lp5572
I37
as(I7
I44
I20
tp5573
(lp5574
I39
as(I5
I11
I32
tp5575
(lp5576
I44
as(I48
I33
I24
tp5577
(lp5578
I25
aI30
as(I30
I34
I33
tp5579
(lp5580
I34
as(I40
I17
I1
tp5581
(lp5582
I34
as(I32
I23
I29
tp5583
(lp5584
I35
as(I21
I24
I35
tp5585
(lp5586
I25
as(I1
I32
I26
tp5587
(lp5588
I6
as(I15
I19
I18
tp5589
(lp5590
I16
as(I14
I36
I11
tp5591
(lp5592
I36
as(I33
I48
I40
tp5593
(lp5594
I9
as(I29
I5
I9
tp5595
(lp5596
I4
as(I47
I7
I15
tp5597
(lp5598
I12
aI45
as(I5
I29
I44
tp5599
(lp5600
I31
as(I28
I39
I28
tp5601
(lp5602
I5
aI8
aI21
aI43
as(I16
I30
I22
tp5603
(lp5604
I35
aI48
as(I1
I49
I31
tp5605
(lp5606
I49
as(I29
I39
I44
tp5607
(lp5608
I32
as(I43
I1
I19
tp5609
(lp5610
I11
as(I31
I20
I44
tp5611
(lp5612
I32
as(I41
I2
I38
tp5613
(lp5614
I2
as(I45
I20
I39
tp5615
(lp5616
I20
as(I35
I38
I11
tp5617
(lp5618
I19
as(I18
I45
I32
tp5619
(lp5620
I39
as(I6
I27
I9
tp5621
(lp5622
I22
as(I25
I9
I41
tp5623
(lp5624
I10
as(I49
I4
I9
tp5625
(lp5626
I4
as(I50
I31
I44
tp5627
(lp5628
I31
as(I11
I25
I35
tp5629
(lp5630
I25
as(I13
I50
I31
tp5631
(lp5632
I50
as(I38
I31
I46
tp5633
(lp5634
I47
aI50
as(I22
I27
I49
tp5635
(lp5636
I43
as(I14
I47
I20
tp5637
(lp5638
I45
as(I32
I23
I7
tp5639
(lp5640
I33
as(I21
I8
I9
tp5641
(lp5642
I4
as(I26
I17
I26
tp5643
(lp5644
I7
aI13
aI30
as(I30
I2
I30
tp5645
(lp5646
I1
aI24
aI26
aI36
as(I15
I2
I20
tp5647
(lp5648
I38
as(I49
I35
I31
tp5649
(lp5650
I41
as(I5
I21
I9
tp5651
(lp5652
I21
aI22
as(I44
I7
I30
tp5653
(lp5654
I26
as(I50
I8
I46
tp5655
(lp5656
I17
aI47
as(I30
I34
I24
tp5657
(lp5658
I25
aI42
as(I36
I41
I25
tp5659
(lp5660
I47
as(I13
I48
I30
tp5661
(lp5662
I24
as(I21
I27
I48
tp5663
(lp5664
I22
aI24
as(I43
I35
I9
tp5665
(lp5666
I22
as(I45
I6
I38
tp5667
(lp5668
I7
as(I39
I11
I29
tp5669
(lp5670
I41
as(I8
I26
I36
tp5671
(lp5672
I30
as(I33
I48
I1
tp5673
(lp5674
I30
as(I29
I5
I32
tp5675
(lp5676
I5
as(I41
I42
I15
tp5677
(lp5678
I12
as(I24
I46
I24
tp5679
(lp5680
I25
aI30
aI42
as(I38
I35
I20
tp5681
(lp5682
I37
aI39
as(I7
I44
I33
tp5683
(lp5684
I23
aI40
as(I26
I23
I33
tp5685
(lp5686
I23
aI34
as(I41
I2
I15
tp5687
(lp5688
I12
as(I50
I13
I9
tp5689
(lp5690
I4
as(I40
I11
I40
tp5691
(lp5692
I9
aI13
aI33
aI50
as(I10
I9
I41
tp5693
(lp5694
I29
as(I45
I22
I29
tp5695
(lp5696
I35
as(I5
I29
I21
tp5697
(lp5698
I48
as(I10
I16
I49
tp5699
(lp5700
I18
as(I32
I23
I28
tp5701
(lp5702
I8
aI21
as(I4
I33
I1
tp5703
(lp5704
I23
as(I30
I2
I12
tp5705
(lp5706
I2
as(I22
I45
I29
tp5707
(lp5708
I39
as(I10
I32
I3
tp5709
(lp5710
I29
aI39
as(I50
I8
I49
tp5711
(lp5712
I31
aI43
as(I38
I6
I9
tp5713
(lp5714
I21
as(I15
I33
I38
tp5715
(lp5716
I7
as(I21
I27
I15
tp5717
(lp5718
I45
as(I13
I15
I13
tp5719
(lp5720
I2
aI4
aI26
aI40
as(I38
I6
I33
tp5721
(lp5722
I23
as(I9
I25
I23
tp5723
(lp5724
I25
as(I36
I19
I37
tp5725
(lp5726
I19
aI20
as(I26
I8
I28
tp5727
(lp5728
I8
as(I31
I50
I13
tp5729
(lp5730
I40
as(I6
I32
I49
tp5731
(lp5732
I18
as(I33
I48
I30
tp5733
(lp5734
I24
as(I44
I7
I33
tp5735
(lp5736
I7
as(I47
I14
I24
tp5737
(lp5738
I30
aI42
as(I39
I29
I22
tp5739
(lp5740
I35
as(I41
I42
I24
tp5741
(lp5742
I42
as(I3
I31
I50
tp5743
(lp5744
I31
as(I34
I30
I10
tp5745
(lp5746
I4
as(I36
I41
I32
tp5747
(lp5748
I39
aI44
as(I16
I13
I2
tp5749
(lp5750
I13
as(I33
I4
I26
tp5751
(lp5752
I13
as(I4
I18
I14
tp5753
(lp5754
I16
as(I11
I39
I31
tp5755
(lp5756
I41
as(I12
I25
I46
tp5757
(lp5758
I47
as(I8
I50
I31
tp5759
(lp5760
I50
as(I20
I17
I46
tp5761
(lp5762
I17
as(I45
I22
I37
tp5763
(lp5764
I14
as(I37
I47
I19
tp5765
(lp5766
I38
as(I40
I11
I1
tp5767
(lp5768
I8
as(I46
I24
I25
tp5769
(lp5770
I23
aI24
as(I47
I7
I47
tp5771
(lp5772
I15
aI25
aI46
as(I1
I43
I19
tp5773
(lp5774
I27
as(I2
I41
I39
tp5775
(lp5776
I29
as(I27
I22
I49
tp5777
(lp5778
I18
as(I35
I38
I29
tp5779
(lp5780
I3
aI39
as(I18
I1
I28
tp5781
(lp5782
I8
as(I8
I26
I30
tp5783
(lp5784
I26
as(I45
I6
I20
tp5785
(lp5786
I38
aI39
as(I14
I36
I25
tp5787
(lp5788
I23
aI24
as(I46
I48
I25
tp5789
(lp5790
I24
aI35
as(I45
I18
I19
tp5791
(lp5792
I37
as(I29
I22
I14
tp5793
(lp5794
I16
as(I2
I7
I12
tp5795
(lp5796
I7
aI17
as(I4
I18
I32
tp5797
(lp5798
I18
as(I48
I46
I21
tp5799
(lp5800
I9
as(I31
I38
I13
tp5801
(lp5802
I2
as(I15
I33
I13
tp5803
(lp5804
I40
as(I40
I25
I13
tp5805
(lp5806
I26
as(I1
I43
I6
tp5807
(lp5808
I21
as(I5
I21
I11
tp5809
(lp5810
I8
as(I16
I13
I36
tp5811
(lp5812
I5
aI30
as(I9
I25
I14
tp5813
(lp5814
I35
as(I15
I13
I4
tp5815
(lp5816
I13
as(I31
I38
I40
tp5817
(lp5818
I13
aI33
as(I42
I47
I41
tp5819
(lp5820
I47
as(I44
I14
I35
tp5821
(lp5822
I14
as(I41
I42
I49
tp5823
(lp5824
I43
as(I41
I36
I1
tp5825
(lp5826
I30
as(I40
I28
I5
tp5827
(lp5828
I28
as(I16
I13
I49
tp5829
(lp5830
I50
as(I14
I36
I35
tp5831
(lp5832
I25
aI29
as(I39
I28
I32
tp5833
(lp5834
I5
aI18
aI44
as(I4
I18
I49
tp5835
(lp5836
I18
as(I23
I43
I28
tp5837
(lp5838
I43
as(I7
I9
I10
tp5839
(lp5840
I4
as(I43
I35
I41
tp5841
(lp5842
I29
as(I11
I40
I5
tp5843
(lp5844
I4
as(I36
I19
I28
tp5845
(lp5846
I8
aI43
as(I24
I33
I17
tp5847
(lp5848
I12
aI34
as(I19
I41
I15
tp5849
(lp5850
I47
as(I14
I9
I14
tp5851
(lp5852
I16
aI35
aI36
as(I33
I48
I33
tp5853
(lp5854
I7
aI23
aI34
aI40
as(I1
I18
I49
tp5855
(lp5856
I18
as(I5
I29
I39
tp5857
(lp5858
I3
aI29
as(I10
I16
I3
tp5859
(lp5860
I29
aI48
as(I5
I21
I8
tp5861
(lp5862
I28
as(I27
I3
I48
tp5863
(lp5864
I3
as(I28
I39
I45
tp5865
(lp5866
I20
as(I20
I36
I42
tp5867
(lp5868
I24
as(I42
I41
I29
tp5869
(lp5870
I41
as(I48
I33
I35
tp5871
(lp5872
I25
as(I10
I34
I5
tp5873
(lp5874
I36
as(I8
I21
I9
tp5875
(lp5876
I21
as(I45
I22
I39
tp5877
(lp5878
I29
as(I6
I27
I18
tp5879
(lp5880
I16
aI45
as(I46
I24
I46
tp5881
(lp5882
I2
aI17
aI47
aI50
as(I2
I15
I13
tp5883
(lp5884
I26
as(I43
I1
I43
tp5885
(lp5886
I27
aI28
aI42
as(I17
I40
I33
tp5887
(lp5888
I40
as(I43
I23
I44
tp5889
(lp5890
I6
as(I35
I43
I36
tp5891
(lp5892
I5
as(I36
I14
I27
tp5893
(lp5894
I16
as(I21
I8
I30
tp5895
(lp5896
I1
as(I31
I38
I49
tp5897
(lp5898
I43
aI50
as(I32
I1
I18
tp5899
(lp5900
I45
as(I50
I42
I34
tp5901
(lp5902
I17
as(I7
I44
I38
tp5903
(lp5904
I19
aI20
as(I44
I7
I23
tp5905
(lp5906
I33
as(I47
I14
I46
tp5907
(lp5908
I17
as(I41
I19
I45
tp5909
(lp5910
I27
as(I16
I13
I26
tp5911
(lp5912
I13
as(I17
I46
I7
tp5913
(lp5914
I38
as(I19
I41
I20
tp5915
(lp5916
I39
as(I33
I4
I40
tp5917
(lp5918
I9
aI13
as(I25
I40
I23
tp5919
(lp5920
I1
aI6
aI33
as(I46
I38
I42
tp5921
(lp5922
I37
as(I13
I15
I45
tp5923
(lp5924
I15
as(I18
I4
I32
tp5925
(lp5926
I5
aI39
as(I8
I50
I49
tp5927
(lp5928
I31
aI50
as(I1
I43
I1
tp5929
(lp5930
I8
aI23
aI30
aI34
as(I42
I18
I15
tp5931
(lp5932
I45
as(I36
I19
I5
tp5933
(lp5934
I28
aI32
as(I32
I10
I9
tp5935
(lp5936
I4
as(I26
I23
I11
tp5937
(lp5938
I8
as(I40
I11
I21
tp5939
(lp5940
I6
as(I17
I26
I46
tp5941
(lp5942
I2
aI50
as(I34
I30
I42
tp5943
(lp5944
I24
as(I28
I5
I9
tp5945
(lp5946
I4
aI40
as(I27
I3
I43
tp5947
(lp5948
I28
as(I47
I42
I41
tp5949
(lp5950
I10
as(I29
I5
I29
tp5951
(lp5952
I3
aI35
aI39
aI41
as(I42
I41
I50
tp5953
(lp5954
I31
as(I24
I34
I48
tp5955
(lp5956
I3
as(I50
I42
I24
tp5957
(lp5958
I42
as(I14
I9
I49
tp5959
(lp5960
I50
as(I29
I3
I25
tp5961
(lp5962
I24
as(I24
I34
I30
tp5963
(lp5964
I1
aI26
as(I5
I28
I4
tp5965
(lp5966
I9
aI10
as(I13
I50
I9
tp5967
(lp5968
I40
as(I5
I29
I48
tp5969
(lp5970
I3
as(I41
I19
I15
tp5971
(lp5972
I8
aI45
as(I32
I23
I21
tp5973
(lp5974
I6
as(I4
I33
I10
tp5975
(lp5976
I34
as(I32
I1
I11
tp5977
(lp5978
I8
as(I19
I37
I43
tp5979
(lp5980
I42
as(I10
I32
I10
tp5981
(lp5982
I3
aI4
aI41
as(I30
I34
I6
tp5983
(lp5984
I23
as(I40
I28
I43
tp5985
(lp5986
I28
as(I34
I24
I34
tp5987
(lp5988
I1
aI10
aI17
aI33
as(I15
I33
I45
tp5989
(lp5990
I20
as(I17
I46
I40
tp5991
(lp5992
I50
as(I18
I42
I46
tp5993
(lp5994
I17
as(I43
I23
I21
tp5995
(lp5996
I6
as(I21
I27
I6
tp5997
(lp5998
I44
as(I13
I15
I4
tp5999
(lp6000
I10
as(I43
I35
I27
tp6001
(lp6002
I16
aI19
as(I10
I34
I41
tp6003
(lp6004
I31
aI47
as(I28
I34
I42
tp6005
(lp6006
I17
as(I26
I8
I23
tp6007
(lp6008
I1
as(I46
I24
I23
tp6009
(lp6010
I1
as(I19
I36
I27
tp6011
(lp6012
I16
aI43
as(I7
I47
I7
tp6013
(lp6014
I12
aI26
aI33
aI38
as(I33
I48
I23
tp6015
(lp6016
I1
aI6
aI25
as(I47
I14
I17
tp6017
(lp6018
I42
as(I41
I42
I17
tp6019
(lp6020
I42
as(I34
I30
I1
tp6021
(lp6022
I23
aI30
as(I40
I17
I42
tp6023
(lp6024
I17
as(I17
I20
I37
tp6025
(lp6026
I19
aI20
as(I9
I10
I5
tp6027
(lp6028
I4
as(I19
I37
I44
tp6029
(lp6030
I32
as(I12
I3
I39
tp6031
(lp6032
I3
as(I20
I36
I24
tp6033
(lp6034
I30
as(I36
I20
I37
tp6035
(lp6036
I19
aI20
as(I45
I20
I2
tp6037
(lp6038
I38
as(I50
I13
I31
tp6039
(lp6040
I41
aI44
as(I17
I20
I42
tp6041
(lp6042
I37
aI43
as(I29
I3
I48
tp6043
(lp6044
I3
as(I9
I14
I19
tp6045
(lp6046
I37
as(I10
I16
I35
tp6047
(lp6048
I14
aI22
as(I21
I8
I44
tp6049
(lp6050
I11
as(I27
I3
I16
tp6051
(lp6052
I14
aI22
as(I33
I24
I6
tp6053
(lp6054
I26
as(I32
I1
I36
tp6055
(lp6056
I11
aI30
as(I10
I32
I29
tp6057
(lp6058
I3
aI39
as(I25
I11
I15
tp6059
(lp6060
I8
as(I41
I19
I27
tp6061
(lp6062
I19
as(I15
I33
I20
tp6063
(lp6064
I38
as(I40
I25
I6
tp6065
(lp6066
I23
as(I17
I46
I49
tp6067
(lp6068
I50
as(I43
I1
I11
tp6069
(lp6070
I8
as(I17
I40
I1
tp6071
(lp6072
I23
as(I14
I44
I39
tp6073
(lp6074
I32
as(I48
I13
I9
tp6075
(lp6076
I4
aI40
as(I45
I6
I21
tp6077
(lp6078
I6
as(I42
I47
I34
tp6079
(lp6080
I10
as(I8
I26
I1
tp6081
(lp6082
I23
aI30
aI34
as(I7
I44
I6
tp6083
(lp6084
I44
as(I48
I33
I10
tp6085
(lp6086
I34
as(I28
I40
I5
tp6087
(lp6088
I4
as(I44
I26
I11
tp6089
(lp6090
I8
aI19
aI36
as(I4
I8
I30
tp6091
(lp6092
I1
as(I2
I41
I15
tp6093
(lp6094
I47
as(I34
I10
I9
tp6095
(lp6096
I4
as(I14
I36
I42
tp6097
(lp6098
I24
as(I39
I28
I48
tp6099
(lp6100
I21
as(I11
I39
I41
tp6101
(lp6102
I29
as(I33
I15
I1
tp6103
(lp6104
I8
as(I15
I19
I12
tp6105
(lp6106
I2
aI7
as(I8
I50
I17
tp6107
(lp6108
I46
as(I24
I33
I26
tp6109
(lp6110
I7
as(I39
I11
I36
tp6111
(lp6112
I11
as(I2
I30
I7
tp6113
(lp6114
I26
as(I40
I11
I23
tp6115
(lp6116
I6
as(I39
I28
I18
tp6117
(lp6118
I49
as(I42
I50
I42
tp6119
(lp6120
I17
aI24
aI43
as(I47
I7
I33
tp6121
(lp6122
I7
as(I34
I28
I6
tp6123
(lp6124
I21
as(I22
I29
I10
tp6125
(lp6126
I41
as(I1
I49
I1
tp6127
(lp6128
I8
aI23
aI30
aI34
as(I10
I16
I10
tp6129
(lp6130
I3
aI4
aI41
as(I43
I44
I45
tp6131
(lp6132
I18
as(I29
I22
I16
tp6133
(lp6134
I22
as(I30
I16
I30
tp6135
(lp6136
I24
aI36
as(I7
I44
I36
tp6137
(lp6138
I11
as(I46
I17
I50
tp6139
(lp6140
I40
aI49
as(I50
I31
I47
tp6141
(lp6142
I41
as(I16
I10
I31
tp6143
(lp6144
I41
as(I13
I50
I41
tp6145
(lp6146
I31
as(I37
I12
I38
tp6147
(lp6148
I2
aI7
as(I14
I44
I30
tp6149
(lp6150
I26
as(I30
I23
I7
tp6151
(lp6152
I33
as(I35
I43
I31
tp6153
(lp6154
I49
as(I36
I14
I18
tp6155
(lp6156
I16
as(I21
I8
I23
tp6157
(lp6158
I1
aI33
as(I15
I13
I50
tp6159
(lp6160
I40
as(I47
I37
I19
tp6161
(lp6162
I37
as(I19
I37
I11
tp6163
(lp6164
I36
aI44
as(I5
I21
I10
tp6165
(lp6166
I3
as(I44
I7
I12
tp6167
(lp6168
I7
as(I38
I6
I32
tp6169
(lp6170
I44
as(I6
I32
I48
tp6171
(lp6172
I3
as(I19
I15
I45
tp6173
(lp6174
I15
as(I44
I26
I50
tp6175
(lp6176
I40
as(I38
I6
I13
tp6177
(lp6178
I4
aI26
as(I14
I36
I29
tp6179
(lp6180
I39
as(I33
I4
I33
tp6181
(lp6182
I7
aI23
aI34
aI40
as(I1
I32
I1
tp6183
(lp6184
I8
aI23
aI30
aI34
as(I11
I40
I23
tp6185
(lp6186
I33
as(I15
I2
I7
tp6187
(lp6188
I38
as(I11
I5
I19
tp6189
(lp6190
I27
aI37
as(I46
I24
I48
tp6191
(lp6192
I24
as(I42
I50
I17
tp6193
(lp6194
I12
aI34
aI46
as(I34
I28
I17
tp6195
(lp6196
I12
aI42
as(I49
I1
I46
tp6197
(lp6198
I17
as(I34
I30
I33
tp6199
(lp6200
I7
aI23
as(I1
I49
I24
tp6201
(lp6202
I42
as(I13
I16
I13
tp6203
(lp6204
I2
aI4
aI26
aI40
as(I12
I3
I7
tp6205
(lp6206
I33
aI38
as(I31
I20
I39
tp6207
(lp6208
I20
as(I42
I41
I43
tp6209
(lp6210
I49
as(I30
I34
I30
tp6211
(lp6212
I1
aI24
aI26
aI36
as(I36
I20
I5
tp6213
(lp6214
I32
as(I47
I37
I17
tp6215
(lp6216
I42
as(I6
I45
I31
tp6217
(lp6218
I49
as(I13
I50
I2
tp6219
(lp6220
I12
aI46
as(I38
I31
I33
tp6221
(lp6222
I40
as(I44
I43
I28
tp6223
(lp6224
I43
as(I16
I39
I20
tp6225
(lp6226
I39
as(I30
I2
I26
tp6227
(lp6228
I7
aI13
as(I32
I1
I4
tp6229
(lp6230
I10
as(I30
I23
I21
tp6231
(lp6232
I6
as(I31
I50
I46
tp6233
(lp6234
I50
as(I31
I38
I41
tp6235
(lp6236
I47
as(I6
I32
I11
tp6237
(lp6238
I36
as(I50
I31
I23
tp6239
(lp6240
I6
as(I17
I46
I17
tp6241
(lp6242
I12
aI34
aI42
aI46
as(I42
I18
I32
tp6243
(lp6244
I18
as(I27
I6
I26
tp6245
(lp6246
I6
as(I18
I4
I50
tp6247
(lp6248
I40
as(I3
I31
I29
tp6249
(lp6250
I39
aI41
as(I19
I41
I45
tp6251
(lp6252
I15
as(I42
I47
I2
tp6253
(lp6254
I46
as(I19
I36
I44
tp6255
(lp6256
I32
as(I30
I34
I36
tp6257
(lp6258
I11
as(I15
I2
I46
tp6259
(lp6260
I2
aI17
as(I1
I18
I28
tp6261
(lp6262
I5
aI43
as(I41
I42
I10
tp6263
(lp6264
I3
aI34
as(I40
I28
I9
tp6265
(lp6266
I4
aI21
aI22
as(I34
I30
I24
tp6267
(lp6268
I30
as(I34
I10
I41
tp6269
(lp6270
I10
as(I50
I42
I17
tp6271
(lp6272
I42
as(I24
I46
I29
tp6273
(lp6274
I41
as(I22
I48
I35
tp6275
(lp6276
I14
aI25
aI29
as(I45
I20
I27
tp6277
(lp6278
I16
aI19
aI43
as(I8
I21
I44
tp6279
(lp6280
I6
aI32
as(I11
I5
I36
tp6281
(lp6282
I5
aI14
as(I50
I13
I4
tp6283
(lp6284
I13
as(I47
I37
I42
tp6285
(lp6286
I37
as(I5
I28
I10
tp6287
(lp6288
I34
as(I1
I49
I33
tp6289
(lp6290
I40
as(I21
I5
I4
tp6291
(lp6292
I5
as(I1
I32
I10
tp6293
(lp6294
I4
as(I4
I33
I4
tp6295
(lp6296
I9
aI10
aI13
as(I6
I38
I12
tp6297
(lp6298
I2
as(I9
I10
I41
tp6299
(lp6300
I10
as(I23
I43
I31
tp6301
(lp6302
I49
as(I10
I32
I4
tp6303
(lp6304
I5
as(I29
I22
I48
tp6305
(lp6306
I21
aI22
as(I40
I25
I31
tp6307
(lp6308
I41
as(I24
I21
I26
tp6309
(lp6310
I6
as(I25
I40
I50
tp6311
(lp6312
I40
as(I13
I16
I26
tp6313
(lp6314
I30
as(I9
I25
I16
tp6315
(lp6316
I14
as(I31
I3
I18
tp6317
(lp6318
I32
as(I26
I8
I1
tp6319
(lp6320
I8
as(I42
I47
I27
tp6321
(lp6322
I45
as(I7
I47
I25
tp6323
(lp6324
I47
as(I7
I44
I15
tp6325
(lp6326
I8
as(I44
I7
I44
tp6327
(lp6328
I6
aI11
aI31
aI32
as(I48
I33
I3
tp6329
(lp6330
I10
as(I4
I8
I21
tp6331
(lp6332
I28
as(I21
I24
I6
tp6333
(lp6334
I23
aI26
as(I33
I4
I1
tp6335
(lp6336
I34
as(I4
I18
I3
tp6337
(lp6338
I39
as(I11
I39
I32
tp6339
(lp6340
I39
as(I48
I22
I25
tp6341
(lp6342
I35
as(I33
I15
I8
tp6343
(lp6344
I15
as(I47
I42
I12
tp6345
(lp6346
I17
as(I23
I32
I25
tp6347
(lp6348
I35
as(I19
I41
I29
tp6349
(lp6350
I41
as(I14
I9
I28
tp6351
(lp6352
I21
as(I42
I50
I49
tp6353
(lp6354
I31
aI50
as(I5
I29
I9
tp6355
(lp6356
I22
as(I14
I47
I41
tp6357
(lp6358
I47
as(I10
I16
I29
tp6359
(lp6360
I35
as(I35
I38
I16
tp6361
(lp6362
I27
as(I3
I12
I33
tp6363
(lp6364
I7
as(I45
I6
I31
tp6365
(lp6366
I44
as(I38
I35
I38
tp6367
(lp6368
I2
aI7
aI19
aI20
as(I23
I43
I6
tp6369
(lp6370
I21
aI44
as(I29
I22
I9
tp6371
(lp6372
I22
as(I34
I24
I7
tp6373
(lp6374
I26
as(I50
I31
I41
tp6375
(lp6376
I31
as(I11
I25
I8
tp6377
(lp6378
I1
aI15
as(I13
I50
I34
tp6379
(lp6380
I17
as(I17
I40
I23
tp6381
(lp6382
I33
as(I12
I37
I11
tp6383
(lp6384
I19
as(I35
I43
I22
tp6385
(lp6386
I16
as(I28
I34
I15
tp6387
(lp6388
I12
as(I22
I45
I47
tp6389
(lp6390
I15
as(I20
I31
I29
tp6391
(lp6392
I41
as(I31
I38
I39
tp6393
(lp6394
I20
as(I26
I23
I1
tp6395
(lp6396
I23
aI34
as(I5
I11
I36
tp6397
(lp6398
I11
aI14
aI30
as(I41
I36
I4
tp6399
(lp6400
I5
as(I16
I13
I48
tp6401
(lp6402
I3
as(I44
I26
I5
tp6403
(lp6404
I4
as(I4
I8
I44
tp6405
(lp6406
I11
as(I7
I9
I7
tp6407
(lp6408
I12
aI26
aI33
as(I32
I10
I44
tp6409
(lp6410
I31
as(I39
I28
I10
tp6411
(lp6412
I4
as(I24
I33
I12
tp6413
(lp6414
I7
as(I50
I42
I18
tp6415
(lp6416
I16
as(I23
I32
I18
tp6417
(lp6418
I32
as(I7
I47
I46
tp6419
(lp6420
I47
as(I25
I12
I42
tp6421
(lp6422
I17
as(I42
I50
I24
tp6423
(lp6424
I25
as(I5
I29
I32
tp6425
(lp6426
I39
aI44
as(I24
I46
I2
tp6427
(lp6428
I46
as(I22
I29
I24
tp6429
(lp6430
I25
as(I27
I22
I18
tp6431
(lp6432
I16
as(I10
I16
I4
tp6433
(lp6434
I5
aI9
as(I14
I36
I16
tp6435
(lp6436
I18
aI27
as(I45
I18
I15
tp6437
(lp6438
I47
as(I22
I48
I3
tp6439
(lp6440
I48
as(I49
I4
I5
tp6441
(lp6442
I4
as(I46
I24
I43
tp6443
(lp6444
I42
as(I40
I11
I5
tp6445
(lp6446
I36
as(I14
I47
I16
tp6447
(lp6448
I22
as(I44
I43
I5
tp6449
(lp6450
I28
as(I9
I7
I21
tp6451
(lp6452
I6
as(I21
I8
I5
tp6453
(lp6454
I28
aI36
as(I20
I31
I42
tp6455
(lp6456
I43
as(I30
I2
I17
tp6457
(lp6458
I12
aI46
as(I30
I23
I30
tp6459
(lp6460
I1
aI24
aI26
aI36
as(I39
I16
I18
tp6461
(lp6462
I16
as(I26
I23
I40
tp6463
(lp6464
I33
as(I50
I13
I7
tp6465
(lp6466
I26
as(I44
I26
I44
tp6467
(lp6468
I6
aI11
aI31
aI32
as(I24
I34
I46
tp6469
(lp6470
I17
as(I46
I38
I15
tp6471
(lp6472
I12
as(I7
I44
I39
tp6473
(lp6474
I32
as(I27
I6
I19
tp6475
(lp6476
I11
aI38
as(I9
I25
I48
tp6477
(lp6478
I24
as(I4
I49
I40
tp6479
(lp6480
I50
as(I29
I5
I36
tp6481
(lp6482
I5
as(I41
I42
I3
tp6483
(lp6484
I48
as(I14
I9
I16
tp6485
(lp6486
I18
aI22
as(I34
I10
I48
tp6487
(lp6488
I3
as(I29
I39
I31
tp6489
(lp6490
I44
as(I33
I15
I40
tp6491
(lp6492
I13
as(I30
I16
I11
tp6493
(lp6494
I19
as(I36
I20
I19
tp6495
(lp6496
I37
aI38
as(I45
I20
I16
tp6497
(lp6498
I14
as(I40
I11
I44
tp6499
(lp6500
I11
as(I46
I24
I2
tp6501
(lp6502
I12
aI13
as(I13
I50
I12
tp6503
(lp6504
I17
as(I3
I29
I41
tp6505
(lp6506
I29
aI47
as(I4
I33
I13
tp6507
(lp6508
I2
aI26
aI40
as(I30
I2
I8
tp6509
(lp6510
I15
as(I42
I41
I15
tp6511
(lp6512
I47
as(I29
I22
I41
tp6513
(lp6514
I10
as(I46
I24
I50
tp6515
(lp6516
I49
as(I23
I30
I36
tp6517
(lp6518
I30
as(I30
I34
I11
tp6519
(lp6520
I8
as(I50
I31
I9
tp6521
(lp6522
I4
as(I40
I25
I40
tp6523
(lp6524
I9
aI13
aI33
aI50
as(I43
I23
I30
tp6525
(lp6526
I1
as(I10
I34
I10
tp6527
(lp6528
I3
aI4
aI34
aI41
as(I14
I36
I19
tp6529
(lp6530
I11
as(I1
I32
I44
tp6531
(lp6532
I32
as(I13
I16
I19
tp6533
(lp6534
I27
as(I40
I28
I33
tp6535
(lp6536
I23
as(I33
I24
I7
tp6537
(lp6538
I12
aI26
as(I28
I40
I4
tp6539
(lp6540
I9
aI13
as(I38
I46
I13
tp6541
(lp6542
I40
as(I31
I38
I7
tp6543
(lp6544
I38
as(I19
I36
I30
tp6545
(lp6546
I36
as(I49
I1
I11
tp6547
(lp6548
I8
as(I34
I30
I6
tp6549
(lp6550
I26
as(I34
I10
I31
tp6551
(lp6552
I41
as(I7
I2
I38
tp6553
(lp6554
I2
as(I4
I18
I10
tp6555
(lp6556
I3
aI41
as(I11
I39
I27
tp6557
(lp6558
I45
as(I48
I22
I16
tp6559
(lp6560
I22
as(I33
I15
I23
tp6561
(lp6562
I1
aI25
as(I43
I1
I42
tp6563
(lp6564
I17
aI24
as(I24
I46
I15
tp6565
(lp6566
I12
as(I20
I17
I42
tp6567
(lp6568
I17
as(I36
I20
I42
tp6569
(lp6570
I37
as(I10
I34
I48
tp6571
(lp6572
I24
as(I39
I16
I29
tp6573
(lp6574
I35
as(I50
I13
I26
tp6575
(lp6576
I13
as(I14
I9
I21
tp6577
(lp6578
I9
as(I41
I19
I43
tp6579
(lp6580
I27
as(I25
I11
I35
tp6581
(lp6582
I14
as(I16
I30
I32
tp6583
(lp6584
I5
as(I27
I22
I45
tp6585
(lp6586
I18
as(I9
I14
I22
tp6587
(lp6588
I16
aI35
aI48
as(I10
I16
I36
tp6589
(lp6590
I14
as(I35
I38
I25
tp6591
(lp6592
I23
as(I27
I3
I29
tp6593
(lp6594
I3
as(I43
I44
I31
tp6595
(lp6596
I44
as(I28
I39
I8
tp6597
(lp6598
I15
as(I3
I27
I48
tp6599
(lp6600
I22
aI24
as(I45
I6
I8
tp6601
(lp6602
I11
as(I21
I5
I6
tp6603
(lp6604
I26
aI44
as(I46
I48
I29
tp6605
(lp6606
I3
as(I45
I18
I47
tp6607
(lp6608
I41
as(I6
I27
I45
tp6609
(lp6610
I27
as(I48
I46
I17
tp6611
(lp6612
I46
as.