(dp0
(I17
I20
I14
tp1
(lp2
I11
as(I21
I1
I10
tp3
(lp4
I1
as(I15
I3
I11
tp5
(lp6
I3
as(I8
I10
I24
tp7
(lp8
I10
as(I4
I10
I5
tp9
(lp10
I1
as(I3
I9
I17
tp11
(lp12
I25
as(I13
I17
I16
tp13
(lp14
I6
as(I11
I7
I22
tp15
(lp16
I7
as(I9
I15
I25
tp17
(lp18
I4
aI17
as(I16
I12
I10
tp19
(lp20
I13
as(I3
I15
I13
tp21
(lp22
I15
as(I2
I25
I3
tp23
(lp24
I11
as(I10
I23
I17
tp25
(lp26
I23
as(I21
I12
I16
tp27
(lp28
I12
as(I23
I14
I10
tp29
(lp30
I1
as(I10
I4
I7
tp31
(lp32
I5
as(I17
I6
I17
tp33
(lp34
I6
aI20
aI23
aI25
as(I12
I21
I19
tp35
(lp36
I8
as(I6
I13
I9
tp37
(lp38
I24
as(I25
I11
I20
tp39
(lp40
I11
aI19
as(I8
I13
I22
tp41
(lp42
I7
aI12
as(I6
I18
I6
tp43
(lp44
I9
aI15
aI16
aI17
as(I24
I1
I24
tp45
(lp46
I3
aI9
aI10
aI23
as(I1
I19
I10
tp47
(lp48
I13
aI18
aI24
as(I18
I4
I13
tp49
(lp50
I15
as(I4
I24
I9
tp51
(lp52
I23
aI24
as(I16
I20
I12
tp53
(lp54
I2
as(I19
I7
I21
tp55
(lp56
I5
as(I24
I1
I7
tp57
(lp58
I5
aI18
as(I19
I22
I8
tp59
(lp60
I13
aI22
as(I24
I14
I24
tp61
(lp62
I3
aI9
aI10
aI23
as(I7
I15
I6
tp63
(lp64
I15
as(I1
I21
I4
tp65
(lp66
I15
as(I11
I5
I1
tp67
(lp68
I5
aI21
as(I5
I11
I5
tp69
(lp70
I1
aI7
aI14
aI21
as(I4
I19
I14
tp71
(lp72
I11
as(I21
I18
I15
tp73
(lp74
I4
aI13
as(I7
I11
I3
tp75
(lp76
I11
as(I11
I25
I4
tp77
(lp78
I25
as(I24
I18
I4
tp79
(lp80
I18
as(I17
I14
I6
tp81
(lp82
I15
aI16
as(I3
I9
I25
tp83
(lp84
I9
as(I15
I7
I4
tp85
(lp86
I14
aI18
as(I11
I7
I14
tp87
(lp88
I1
aI4
aI5
as(I9
I15
I17
tp89
(lp90
I6
aI25
as(I8
I20
I2
tp91
(lp92
I16
as(I7
I5
I24
tp93
(lp94
I10
as(I2
I25
I11
tp95
(lp96
I20
as(I24
I14
I10
tp97
(lp98
I1
aI13
aI18
as(I10
I8
I22
tp99
(lp100
I8
as(I8
I11
I3
tp101
(lp102
I11
as(I23
I14
I18
tp103
(lp104
I4
as(I19
I1
I24
tp105
(lp106
I10
as(I6
I13
I8
tp107
(lp108
I13
as(I17
I6
I9
tp109
(lp110
I6
as(I13
I16
I10
tp111
(lp112
I18
as(I19
I4
I12
tp113
(lp114
I13
as(I1
I22
I3
tp115
(lp116
I22
as(I14
I22
I8
tp117
(lp118
I22
as(I16
I13
I22
tp119
(lp120
I8
as(I4
I18
I5
tp121
(lp122
I1
aI7
as(I5
I22
I14
tp123
(lp124
I11
as(I5
I7
I15
tp125
(lp126
I4
as(I18
I4
I5
tp127
(lp128
I1
aI14
as(I9
I12
I13
tp129
(lp130
I12
as(I4
I24
I1
tp131
(lp132
I10
as(I15
I9
I10
tp133
(lp134
I24
as(I11
I25
I17
tp135
(lp136
I6
aI25
as(I25
I11
I6
tp137
(lp138
I16
as(I17
I13
I24
tp139
(lp140
I10
as(I24
I4
I1
tp141
(lp142
I14
as(I12
I25
I18
tp143
(lp144
I4
as(I5
I20
I5
tp145
(lp146
I1
aI7
aI14
aI21
as(I21
I18
I10
tp147
(lp148
I18
as(I16
I6
I25
tp149
(lp150
I9
aI17
as(I10
I23
I7
tp151
(lp152
I23
as(I4
I18
I4
tp153
(lp154
I14
aI15
aI18
aI25
as(I23
I10
I3
tp155
(lp156
I24
as(I8
I10
I8
tp157
(lp158
I13
aI19
aI21
aI22
as(I20
I17
I2
tp159
(lp160
I16
as(I15
I7
I12
tp161
(lp162
I22
as(I12
I21
I12
tp163
(lp164
I2
aI13
aI16
aI22
as(I6
I17
I24
tp165
(lp166
I23
as(I25
I2
I9
tp167
(lp168
I6
as(I1
I24
I14
tp169
(lp170
I4
aI11
as(I24
I18
I12
tp171
(lp172
I2
as(I13
I8
I21
tp173
(lp174
I8
as(I12
I9
I12
tp175
(lp176
I2
aI13
aI16
aI22
as(I22
I19
I12
tp177
(lp178
I2
aI13
aI16
as(I13
I8
I15
tp179
(lp180
I21
as(I19
I4
I20
tp181
(lp182
I11
aI17
aI25
as(I20
I5
I7
tp183
(lp184
I5
as(I14
I23
I24
tp185
(lp186
I23
as(I11
I5
I24
tp187
(lp188
I10
as(I5
I7
I1
tp189
(lp190
I10
aI14
as(I4
I18
I13
tp191
(lp192
I10
aI12
as(I12
I16
I6
tp193
(lp194
I16
as(I11
I8
I21
tp195
(lp196
I8
as(I13
I6
I10
tp197
(lp198
I1
aI24
as(I2
I21
I13
tp199
(lp200
I8
aI15
as(I16
I13
I8
tp201
(lp202
I13
as(I12
I25
I13
tp203
(lp204
I15
as(I24
I4
I9
tp205
(lp206
I6
aI25
as(I21
I2
I5
tp207
(lp208
I7
as(I18
I21
I5
tp209
(lp210
I1
aI21
as(I9
I3
I9
tp211
(lp212
I6
aI23
aI24
aI25
as(I21
I12
I1
tp213
(lp214
I10
as(I16
I6
I12
tp215
(lp216
I13
as(I13
I17
I10
tp217
(lp218
I24
as(I24
I4
I3
tp219
(lp220
I11
as(I6
I17
I16
tp221
(lp222
I11
as(I25
I2
I17
tp223
(lp224
I6
aI20
as(I7
I5
I8
tp225
(lp226
I21
as(I25
I11
I3
tp227
(lp228
I11
as(I23
I14
I23
tp229
(lp230
I7
aI9
aI17
aI24
as(I24
I1
I9
tp231
(lp232
I23
as(I18
I24
I6
tp233
(lp234
I9
as(I19
I1
I8
tp235
(lp236
I13
aI21
as(I14
I24
I23
tp237
(lp238
I24
as(I22
I5
I11
tp239
(lp240
I14
as(I1
I21
I5
tp241
(lp242
I14
aI21
as(I23
I10
I5
tp243
(lp244
I1
aI21
as(I24
I14
I11
tp245
(lp246
I14
as(I1
I24
I6
tp247
(lp248
I9
as(I14
I17
I15
tp249
(lp250
I6
as(I16
I20
I16
tp251
(lp252
I2
aI6
aI11
aI12
as(I11
I25
I6
tp253
(lp254
I9
aI17
as(I18
I24
I2
tp255
(lp256
I19
as(I7
I11
I18
tp257
(lp258
I2
aI4
as(I25
I12
I16
tp259
(lp260
I12
as(I13
I17
I25
tp261
(lp262
I17
as(I17
I14
I23
tp263
(lp264
I7
as(I13
I6
I2
tp265
(lp266
I16
as(I17
I13
I10
tp267
(lp268
I13
as(I2
I21
I5
tp269
(lp270
I21
as(I24
I4
I17
tp271
(lp272
I25
as(I21
I2
I13
tp273
(lp274
I12
as(I7
I5
I23
tp275
(lp276
I24
as(I5
I20
I21
tp277
(lp278
I8
as(I12
I25
I16
tp279
(lp280
I6
aI11
as(I15
I9
I23
tp281
(lp282
I9
as(I16
I6
I4
tp283
(lp284
I15
as(I17
I13
I6
tp285
(lp286
I9
aI15
aI16
as(I18
I6
I18
tp287
(lp288
I2
aI4
aI7
aI10
as(I23
I14
I3
tp289
(lp290
I11
as(I7
I15
I12
tp291
(lp292
I13
as(I15
I3
I4
tp293
(lp294
I14
as(I25
I2
I25
tp295
(lp296
I4
aI9
aI17
aI20
as(I1
I22
I12
tp297
(lp298
I22
as(I23
I10
I7
tp299
(lp300
I5
aI18
aI22
as(I19
I22
I18
tp301
(lp302
I7
as(I18
I24
I19
tp303
(lp304
I3
as(I2
I3
I22
tp305
(lp306
I3
as(I1
I19
I1
tp307
(lp308
I5
aI10
aI14
aI21
as(I18
I4
I20
tp309
(lp310
I25
as(I5
I7
I14
tp311
(lp312
I1
aI4
as(I22
I14
I10
tp313
(lp314
I1
as(I20
I5
I23
tp315
(lp316
I7
as(I16
I6
I19
tp317
(lp318
I20
as(I15
I9
I4
tp319
(lp320
I18
aI25
as(I11
I5
I8
tp321
(lp322
I21
as(I17
I20
I15
tp323
(lp324
I4
as(I15
I3
I10
tp325
(lp326
I24
as(I17
I13
I21
tp327
(lp328
I8
as(I12
I16
I22
tp329
(lp330
I3
aI7
as(I6
I16
I20
tp331
(lp332
I11
aI19
as(I4
I18
I14
tp333
(lp334
I1
aI5
as(I4
I10
I4
tp335
(lp336
I14
aI15
aI18
aI25
as(I3
I9
I16
tp337
(lp338
I6
as(I13
I17
I19
tp339
(lp340
I20
as(I3
I15
I9
tp341
(lp342
I6
as(I11
I7
I17
tp343
(lp344
I23
as(I6
I17
I9
tp345
(lp346
I23
aI24
aI25
as(I24
I4
I25
tp347
(lp348
I4
as(I21
I2
I21
tp349
(lp350
I1
aI5
aI8
aI15
as(I9
I3
I25
tp351
(lp352
I17
aI20
as(I24
I14
I5
tp353
(lp354
I14
as(I5
I7
I10
tp355
(lp356
I18
aI24
as(I8
I11
I8
tp357
(lp358
I13
aI19
aI21
aI22
as(I23
I14
I11
tp359
(lp360
I14
as(I24
I18
I17
tp361
(lp362
I25
as(I6
I13
I1
tp363
(lp364
I10
as(I22
I19
I13
tp365
(lp366
I8
aI12
as(I14
I22
I7
tp367
(lp368
I22
as(I12
I25
I15
tp369
(lp370
I4
as(I24
I14
I25
tp371
(lp372
I4
as(I15
I3
I21
tp373
(lp374
I8
as(I25
I12
I9
tp375
(lp376
I6
as(I14
I24
I7
tp377
(lp378
I23
as(I9
I12
I18
tp379
(lp380
I2
as(I22
I14
I18
tp381
(lp382
I4
as(I2
I21
I18
tp383
(lp384
I4
aI7
aI10
as(I7
I15
I10
tp385
(lp386
I13
as(I10
I25
I24
tp387
(lp388
I9
aI23
as(I22
I1
I14
tp389
(lp390
I1
as(I4
I19
I15
tp391
(lp392
I13
aI21
as(I18
I21
I10
tp393
(lp394
I1
aI13
as(I7
I11
I2
tp395
(lp396
I16
as(I5
I11
I23
tp397
(lp398
I24
as(I17
I14
I7
tp399
(lp400
I5
as(I8
I10
I19
tp401
(lp402
I2
aI3
as(I3
I9
I24
tp403
(lp404
I9
aI23
as(I7
I15
I23
tp405
(lp406
I17
as(I8
I20
I1
tp407
(lp408
I14
as(I3
I15
I4
tp409
(lp410
I15
as(I7
I5
I7
tp411
(lp412
I5
aI18
aI22
aI23
as(I21
I1
I18
tp413
(lp414
I10
as(I9
I3
I17
tp415
(lp416
I20
as(I3
I2
I7
tp417
(lp418
I18
as(I11
I8
I14
tp419
(lp420
I1
aI5
as(I5
I11
I10
tp421
(lp422
I24
as(I24
I18
I25
tp423
(lp424
I4
as(I10
I4
I14
tp425
(lp426
I4
as(I17
I20
I6
tp427
(lp428
I9
aI15
aI16
as(I20
I8
I15
tp429
(lp430
I21
as(I19
I4
I13
tp431
(lp432
I15
as(I16
I20
I11
tp433
(lp434
I3
aI20
as(I14
I23
I17
tp435
(lp436
I23
as(I7
I19
I17
tp437
(lp438
I20
as(I8
I13
I15
tp439
(lp440
I13
as(I6
I18
I13
tp441
(lp442
I10
as(I21
I18
I2
tp443
(lp444
I18
as(I15
I9
I24
tp445
(lp446
I9
as(I12
I16
I13
tp447
(lp448
I10
aI15
as(I14
I24
I1
tp449
(lp450
I5
aI10
as(I9
I12
I10
tp451
(lp452
I13
aI18
as(I2
I21
I10
tp453
(lp454
I1
as(I23
I10
I1
tp455
(lp456
I10
as(I16
I6
I3
tp457
(lp458
I24
as(I16
I12
I16
tp459
(lp460
I2
aI6
aI11
aI12
as(I18
I21
I2
tp461
(lp462
I19
as(I20
I16
I11
tp463
(lp464
I3
aI16
as(I17
I13
I17
tp465
(lp466
I6
aI20
aI23
aI25
as(I17
I14
I15
tp467
(lp468
I4
as(I23
I10
I18
tp469
(lp470
I10
as(I6
I13
I22
tp471
(lp472
I8
as(I24
I14
I4
tp473
(lp474
I14
as(I15
I7
I15
tp475
(lp476
I4
aI6
aI13
aI21
as(I12
I21
I13
tp477
(lp478
I8
aI10
aI15
as(I11
I7
I1
tp479
(lp480
I5
as(I6
I17
I25
tp481
(lp482
I17
aI20
as(I21
I1
I15
tp483
(lp484
I4
aI13
as(I15
I7
I22
tp485
(lp486
I7
as(I23
I10
I22
tp487
(lp488
I3
as(I1
I24
I18
tp489
(lp490
I7
aI10
as(I14
I17
I6
tp491
(lp492
I17
as(I2
I3
I7
tp493
(lp494
I22
as(I12
I9
I13
tp495
(lp496
I10
aI15
as(I25
I11
I16
tp497
(lp498
I11
as(I24
I4
I23
tp499
(lp500
I9
aI17
as(I13
I8
I12
tp501
(lp502
I2
aI16
aI22
as(I19
I4
I21
tp503
(lp504
I15
as(I20
I5
I8
tp505
(lp506
I21
aI22
as(I3
I15
I22
tp507
(lp508
I8
aI12
as(I14
I23
I25
tp509
(lp510
I9
aI17
as(I19
I22
I11
tp511
(lp512
I3
aI16
as(I8
I13
I7
tp513
(lp514
I18
as(I4
I18
I12
tp515
(lp516
I2
as(I11
I8
I16
tp517
(lp518
I2
aI12
as(I25
I12
I25
tp519
(lp520
I4
aI9
aI17
aI20
as(I16
I20
I3
tp521
(lp522
I19
as(I9
I12
I2
tp523
(lp524
I12
as(I2
I21
I2
tp525
(lp526
I12
aI16
aI18
aI19
as(I25
I10
I5
tp527
(lp528
I1
as(I21
I2
I6
tp529
(lp530
I16
as(I17
I20
I23
tp531
(lp532
I9
aI24
as(I5
I20
I18
tp533
(lp534
I4
as(I2
I25
I17
tp535
(lp536
I25
as(I10
I4
I21
tp537
(lp538
I15
as(I21
I12
I6
tp539
(lp540
I16
as(I21
I1
I4
tp541
(lp542
I14
aI18
as(I8
I10
I3
tp543
(lp544
I24
as(I10
I4
I25
tp545
(lp546
I4
as(I20
I17
I11
tp547
(lp548
I14
aI16
as(I15
I7
I23
tp549
(lp550
I7
as(I12
I21
I5
tp551
(lp552
I21
as(I16
I13
I15
tp553
(lp554
I13
as(I25
I2
I18
tp555
(lp556
I2
as(I1
I22
I21
tp557
(lp558
I5
aI8
as(I7
I19
I8
tp559
(lp560
I19
as(I10
I8
I1
tp561
(lp562
I5
aI21
as(I24
I1
I10
tp563
(lp564
I1
aI18
as(I13
I16
I13
tp565
(lp566
I8
aI10
aI12
aI15
as(I24
I18
I9
tp567
(lp568
I23
aI25
as(I5
I11
I24
tp569
(lp570
I3
as(I22
I5
I8
tp571
(lp572
I13
aI21
as(I22
I14
I1
tp573
(lp574
I14
as(I25
I10
I18
tp575
(lp576
I10
as(I10
I25
I9
tp577
(lp578
I6
aI25
as(I14
I23
I1
tp579
(lp580
I5
aI10
as(I4
I18
I20
tp581
(lp582
I19
as(I15
I3
I13
tp583
(lp584
I8
aI10
aI12
as(I25
I12
I17
tp585
(lp586
I6
as(I17
I14
I16
tp587
(lp588
I11
as(I4
I10
I15
tp589
(lp590
I13
aI21
as(I1
I24
I3
tp591
(lp592
I24
as(I3
I9
I23
tp593
(lp594
I9
aI17
as(I11
I7
I24
tp595
(lp596
I23
as(I22
I1
I22
tp597
(lp598
I3
aI7
aI8
as(I23
I10
I21
tp599
(lp600
I1
as(I7
I5
I22
tp601
(lp602
I3
aI8
as(I18
I21
I18
tp603
(lp604
I2
aI4
aI7
aI10
as(I3
I2
I20
tp605
(lp606
I19
as(I22
I19
I8
tp607
(lp608
I13
aI19
as(I19
I7
I3
tp609
(lp610
I22
aI24
as(I5
I11
I25
tp611
(lp612
I20
as(I6
I13
I6
tp613
(lp614
I9
aI15
aI16
as(I24
I18
I22
tp615
(lp616
I7
as(I18
I6
I2
tp617
(lp618
I12
aI16
as(I7
I19
I12
tp619
(lp620
I2
as(I8
I20
I25
tp621
(lp622
I20
as(I10
I4
I15
tp623
(lp624
I4
as(I22
I5
I18
tp625
(lp626
I10
as(I4
I24
I23
tp627
(lp628
I24
as(I24
I1
I18
tp629
(lp630
I7
aI10
as(I20
I16
I17
tp631
(lp632
I6
as(I14
I24
I14
tp633
(lp634
I1
aI4
aI5
aI11
as(I18
I4
I23
tp635
(lp636
I17
as(I8
I13
I1
tp637
(lp638
I10
as(I6
I16
I4
tp639
(lp640
I18
as(I12
I25
I20
tp641
(lp642
I17
aI25
as(I10
I25
I1
tp643
(lp644
I14
as(I14
I23
I9
tp645
(lp646
I23
as(I4
I19
I4
tp647
(lp648
I14
aI15
aI18
aI25
as(I7
I11
I5
tp649
(lp650
I1
aI14
as(I4
I10
I7
tp651
(lp652
I5
as(I25
I11
I9
tp653
(lp654
I6
aI24
as(I13
I16
I6
tp655
(lp656
I16
as(I6
I16
I2
tp657
(lp658
I16
as(I18
I6
I16
tp659
(lp660
I6
as(I11
I7
I16
tp661
(lp662
I2
aI12
as(I16
I13
I16
tp663
(lp664
I2
aI6
aI11
aI12
as(I16
I12
I8
tp665
(lp666
I13
as(I21
I2
I22
tp667
(lp668
I12
as(I9
I3
I24
tp669
(lp670
I3
aI23
as(I10
I8
I24
tp671
(lp672
I3
as(I21
I12
I22
tp673
(lp674
I12
as(I10
I23
I10
tp675
(lp676
I1
aI13
aI18
aI24
as(I10
I4
I9
tp677
(lp678
I25
as(I24
I14
I19
tp679
(lp680
I20
as(I5
I7
I18
tp681
(lp682
I7
as(I20
I16
I12
tp683
(lp684
I16
as(I1
I22
I5
tp685
(lp686
I7
aI21
as(I7
I19
I24
tp687
(lp688
I3
as(I10
I23
I24
tp689
(lp690
I3
aI9
aI23
as(I6
I18
I4
tp691
(lp692
I18
as(I11
I25
I16
tp693
(lp694
I6
as(I25
I12
I6
tp695
(lp696
I16
as(I1
I19
I8
tp697
(lp698
I19
as(I18
I4
I15
tp699
(lp700
I4
as(I6
I16
I17
tp701
(lp702
I20
aI25
as(I4
I24
I15
tp703
(lp704
I6
aI13
as(I1
I21
I8
tp705
(lp706
I21
as(I19
I7
I23
tp707
(lp708
I7
as(I2
I21
I19
tp709
(lp710
I8
as(I13
I17
I13
tp711
(lp712
I8
aI10
aI12
aI15
as(I14
I24
I4
tp713
(lp714
I18
aI25
as(I17
I13
I25
tp715
(lp716
I4
as(I11
I5
I7
tp717
(lp718
I5
as(I17
I20
I4
tp719
(lp720
I14
aI25
as(I5
I20
I3
tp721
(lp722
I19
as(I24
I1
I3
tp723
(lp724
I11
aI22
as(I25
I10
I23
tp725
(lp726
I24
as(I8
I10
I18
tp727
(lp728
I10
as(I3
I9
I7
tp729
(lp730
I23
as(I15
I7
I6
tp731
(lp732
I9
as(I8
I20
I17
tp733
(lp734
I20
as(I6
I17
I6
tp735
(lp736
I9
aI15
aI16
aI17
as(I25
I10
I25
tp737
(lp738
I4
aI9
aI17
aI20
as(I9
I15
I21
tp739
(lp740
I15
as(I2
I25
I9
tp741
(lp742
I25
as(I2
I3
I8
tp743
(lp744
I22
as(I8
I11
I1
tp745
(lp746
I14
as(I12
I9
I6
tp747
(lp748
I9
aI17
as(I24
I18
I24
tp749
(lp750
I3
aI9
aI10
aI23
as(I14
I24
I25
tp751
(lp752
I9
as(I17
I6
I11
tp753
(lp754
I16
as(I17
I13
I18
tp755
(lp756
I10
as(I20
I8
I14
tp757
(lp758
I1
as(I17
I13
I12
tp759
(lp760
I13
as(I19
I4
I14
tp761
(lp762
I4
as(I20
I5
I1
tp763
(lp764
I5
as(I16
I20
I2
tp765
(lp766
I18
aI19
as(I14
I23
I18
tp767
(lp768
I7
as(I14
I22
I14
tp769
(lp770
I1
aI4
aI5
aI11
as(I8
I13
I8
tp771
(lp772
I13
aI19
aI21
aI22
as(I6
I18
I12
tp773
(lp774
I2
as(I4
I18
I7
tp775
(lp776
I18
as(I25
I10
I11
tp777
(lp778
I14
as(I12
I16
I12
tp779
(lp780
I2
aI13
aI16
aI22
as(I18
I4
I7
tp781
(lp782
I5
aI23
as(I11
I8
I20
tp783
(lp784
I19
as(I4
I24
I7
tp785
(lp786
I23
as(I6
I16
I18
tp787
(lp788
I2
as(I10
I25
I17
tp789
(lp790
I25
as(I22
I1
I7
tp791
(lp792
I5
aI18
as(I6
I16
I13
tp793
(lp794
I12
as(I4
I19
I20
tp795
(lp796
I11
aI19
as(I5
I20
I11
tp797
(lp798
I3
aI20
as(I21
I12
I15
tp799
(lp800
I6
aI13
as(I22
I19
I18
tp801
(lp802
I2
as(I19
I7
I5
tp803
(lp804
I7
as(I13
I16
I22
tp805
(lp806
I3
aI12
as(I15
I7
I14
tp807
(lp808
I5
as(I18
I6
I17
tp809
(lp810
I6
as(I25
I2
I11
tp811
(lp812
I16
as(I7
I5
I14
tp813
(lp814
I5
as(I3
I2
I12
tp815
(lp816
I2
aI16
as(I14
I17
I7
tp817
(lp818
I23
as(I21
I18
I5
tp819
(lp820
I1
aI7
as(I5
I11
I1
tp821
(lp822
I10
aI14
as(I19
I1
I14
tp823
(lp824
I1
aI5
as(I20
I8
I6
tp825
(lp826
I15
as(I13
I8
I13
tp827
(lp828
I8
aI10
aI12
aI15
as(I1
I21
I15
tp829
(lp830
I21
as(I23
I10
I4
tp831
(lp832
I18
as(I10
I25
I14
tp833
(lp834
I4
as(I14
I17
I14
tp835
(lp836
I4
aI5
aI11
as(I1
I24
I23
tp837
(lp838
I24
as(I4
I18
I15
tp839
(lp840
I6
aI13
as(I7
I11
I20
tp841
(lp842
I11
as(I25
I12
I22
tp843
(lp844
I12
as(I9
I12
I3
tp845
(lp846
I22
as(I13
I6
I12
tp847
(lp848
I2
aI16
as(I20
I16
I3
tp849
(lp850
I11
aI19
as(I18
I21
I13
tp851
(lp852
I15
as(I24
I4
I15
tp853
(lp854
I4
as(I21
I2
I7
tp855
(lp856
I18
as(I5
I20
I19
tp857
(lp858
I20
as(I9
I3
I7
tp859
(lp860
I22
as(I21
I12
I7
tp861
(lp862
I22
as(I8
I10
I2
tp863
(lp864
I18
as(I10
I4
I24
tp865
(lp866
I9
as(I1
I19
I24
tp867
(lp868
I3
as(I12
I21
I6
tp869
(lp870
I15
as(I9
I15
I7
tp871
(lp872
I5
as(I25
I2
I19
tp873
(lp874
I2
as(I15
I3
I22
tp875
(lp876
I3
as(I15
I3
I6
tp877
(lp878
I9
as(I14
I22
I21
tp879
(lp880
I8
as(I7
I15
I17
tp881
(lp882
I6
as(I24
I1
I11
tp883
(lp884
I14
as(I10
I23
I25
tp885
(lp886
I17
as(I14
I24
I9
tp887
(lp888
I24
as(I24
I1
I23
tp889
(lp890
I7
as(I1
I21
I7
tp891
(lp892
I5
as(I20
I5
I17
tp893
(lp894
I23
as(I10
I25
I6
tp895
(lp896
I17
as(I1
I24
I4
tp897
(lp898
I25
as(I11
I5
I22
tp899
(lp900
I7
aI8
as(I5
I22
I5
tp901
(lp902
I1
aI7
aI14
aI21
as(I15
I3
I12
tp903
(lp904
I22
as(I16
I13
I14
tp905
(lp906
I1
as(I7
I19
I18
tp907
(lp908
I2
aI10
as(I17
I14
I17
tp909
(lp910
I6
aI20
aI23
aI25
as(I13
I6
I4
tp911
(lp912
I25
as(I4
I10
I14
tp913
(lp914
I1
aI5
aI11
as(I3
I9
I22
tp915
(lp916
I7
as(I13
I17
I21
tp917
(lp918
I15
as(I3
I15
I14
tp919
(lp920
I4
as(I8
I20
I16
tp921
(lp922
I11
as(I21
I2
I15
tp923
(lp924
I4
aI6
aI13
as(I7
I5
I21
tp925
(lp926
I1
aI5
as(I18
I21
I19
tp927
(lp928
I8
as(I2
I25
I6
tp929
(lp930
I9
aI17
as(I8
I20
I23
tp931
(lp932
I17
as(I8
I11
I22
tp933
(lp934
I3
aI12
as(I12
I9
I23
tp935
(lp936
I9
as(I10
I23
I22
tp937
(lp938
I7
as(I17
I6
I20
tp939
(lp940
I11
aI25
as(I13
I8
I18
tp941
(lp942
I2
as(I1
I24
I7
tp943
(lp944
I18
aI23
as(I1
I22
I14
tp945
(lp946
I5
aI11
as(I9
I15
I9
tp947
(lp948
I6
aI23
aI24
aI25
as(I7
I19
I3
tp949
(lp950
I19
as(I12
I25
I9
tp951
(lp952
I25
as(I2
I3
I16
tp953
(lp954
I11
aI12
as(I25
I12
I15
tp955
(lp956
I13
as(I1
I19
I15
tp957
(lp958
I13
as(I22
I5
I1
tp959
(lp960
I5
as(I9
I12
I24
tp961
(lp962
I3
aI10
as(I20
I8
I22
tp963
(lp964
I8
as(I22
I14
I8
tp965
(lp966
I21
as(I20
I5
I25
tp967
(lp968
I4
as(I16
I6
I13
tp969
(lp970
I15
as(I14
I23
I10
tp971
(lp972
I24
as(I11
I5
I14
tp973
(lp974
I1
aI4
aI5
as(I1
I24
I1
tp975
(lp976
I5
aI10
aI14
aI21
as(I7
I11
I4
tp977
(lp978
I14
as(I23
I14
I9
tp979
(lp980
I25
as(I17
I14
I25
tp981
(lp982
I4
aI20
as(I15
I7
I1
tp983
(lp984
I5
as(I1
I24
I11
tp985
(lp986
I3
as(I6
I17
I15
tp987
(lp988
I4
as(I16
I12
I15
tp989
(lp990
I13
as(I14
I17
I3
tp991
(lp992
I19
as(I9
I3
I23
tp993
(lp994
I7
aI24
as(I14
I17
I20
tp995
(lp996
I17
aI25
as(I17
I13
I8
tp997
(lp998
I13
as(I8
I11
I14
tp999
(lp1000
I11
as(I5
I11
I16
tp1001
(lp1002
I11
as(I24
I18
I19
tp1003
(lp1004
I2
as(I6
I13
I15
tp1005
(lp1006
I4
aI13
aI21
as(I12
I21
I22
tp1007
(lp1008
I7
aI8
as(I18
I6
I9
tp1009
(lp1010
I6
as(I14
I22
I5
tp1011
(lp1012
I7
aI21
as(I5
I11
I3
tp1013
(lp1014
I11
as(I6
I16
I6
tp1015
(lp1016
I9
aI15
aI16
aI17
as(I11
I8
I5
tp1017
(lp1018
I21
as(I15
I9
I25
tp1019
(lp1020
I9
aI17
as(I12
I16
I11
tp1021
(lp1022
I16
as(I18
I4
I14
tp1023
(lp1024
I4
as(I9
I12
I16
tp1025
(lp1026
I2
aI12
as(I7
I19
I22
tp1027
(lp1028
I3
aI8
aI12
as(I22
I14
I16
tp1029
(lp1030
I11
as(I2
I21
I16
tp1031
(lp1032
I6
as(I13
I17
I12
tp1033
(lp1034
I16
as(I20
I17
I20
tp1035
(lp1036
I11
aI17
aI19
aI25
as(I4
I19
I13
tp1037
(lp1038
I8
as(I18
I21
I8
tp1039
(lp1040
I21
as(I7
I11
I12
tp1041
(lp1042
I16
as(I8
I10
I21
tp1043
(lp1044
I1
aI5
aI15
as(I17
I14
I5
tp1045
(lp1046
I14
as(I3
I9
I6
tp1047
(lp1048
I9
as(I15
I7
I9
tp1049
(lp1050
I23
as(I18
I21
I1
tp1051
(lp1052
I21
as(I11
I7
I11
tp1053
(lp1054
I3
aI14
aI16
aI20
as(I15
I3
I8
tp1055
(lp1056
I19
aI22
as(I25
I2
I4
tp1057
(lp1058
I15
aI18
as(I3
I15
I6
tp1059
(lp1060
I15
as(I10
I8
I19
tp1061
(lp1062
I8
as(I24
I18
I13
tp1063
(lp1064
I12
as(I12
I9
I7
tp1065
(lp1066
I23
as(I19
I1
I21
tp1067
(lp1068
I1
aI5
as(I6
I16
I11
tp1069
(lp1070
I16
as(I17
I6
I4
tp1071
(lp1072
I15
as(I20
I8
I13
tp1073
(lp1074
I8
as(I1
I21
I13
tp1075
(lp1076
I8
aI15
as(I13
I8
I2
tp1077
(lp1078
I19
as(I19
I4
I15
tp1079
(lp1080
I4
as(I19
I22
I20
tp1081
(lp1082
I11
as(I25
I10
I15
tp1083
(lp1084
I13
as(I25
I11
I25
tp1085
(lp1086
I4
aI9
aI17
aI20
as(I7
I15
I21
tp1087
(lp1088
I15
as(I11
I25
I19
tp1089
(lp1090
I20
as(I4
I18
I6
tp1091
(lp1092
I16
as(I12
I16
I3
tp1093
(lp1094
I11
aI19
as(I13
I6
I21
tp1095
(lp1096
I15
as(I4
I10
I25
tp1097
(lp1098
I9
as(I22
I14
I24
tp1099
(lp1100
I10
as(I2
I21
I8
tp1101
(lp1102
I21
as(I13
I17
I4
tp1103
(lp1104
I25
as(I16
I12
I22
tp1105
(lp1106
I12
as(I4
I19
I21
tp1107
(lp1108
I8
as(I5
I20
I8
tp1109
(lp1110
I19
as(I2
I25
I23
tp1111
(lp1112
I17
as(I6
I13
I21
tp1113
(lp1114
I1
aI8
as(I17
I13
I19
tp1115
(lp1116
I8
as(I21
I1
I5
tp1117
(lp1118
I1
aI7
aI14
as(I8
I10
I13
tp1119
(lp1120
I10
as(I7
I15
I1
tp1121
(lp1122
I21
as(I12
I21
I15
tp1123
(lp1124
I21
as(I11
I7
I3
tp1125
(lp1126
I22
aI24
as(I10
I23
I13
tp1127
(lp1128
I15
as(I25
I2
I12
tp1129
(lp1130
I2
as(I11
I25
I14
tp1131
(lp1132
I4
as(I14
I17
I4
tp1133
(lp1134
I15
aI25
as(I12
I9
I15
tp1135
(lp1136
I6
as(I19
I1
I13
tp1137
(lp1138
I10
as(I12
I9
I22
tp1139
(lp1140
I3
aI7
as(I18
I4
I25
tp1141
(lp1142
I4
as(I13
I8
I10
tp1143
(lp1144
I1
aI18
as(I25
I10
I13
tp1145
(lp1146
I10
as(I10
I25
I15
tp1147
(lp1148
I4
as(I19
I7
I22
tp1149
(lp1150
I7
as(I10
I4
I1
tp1151
(lp1152
I5
aI14
aI21
as(I11
I25
I11
tp1153
(lp1154
I3
aI14
aI16
aI20
as(I8
I20
I14
tp1155
(lp1156
I11
as(I7
I11
I23
tp1157
(lp1158
I17
aI24
as(I14
I24
I5
tp1159
(lp1160
I1
aI7
as(I13
I6
I13
tp1161
(lp1162
I8
aI10
aI12
aI15
as(I15
I9
I7
tp1163
(lp1164
I23
as(I16
I13
I11
tp1165
(lp1166
I14
as(I20
I16
I2
tp1167
(lp1168
I12
aI16
as(I22
I19
I3
tp1169
(lp1170
I11
aI19
as(I22
I19
I20
tp1171
(lp1172
I19
as(I24
I4
I14
tp1173
(lp1174
I4
as(I14
I24
I3
tp1175
(lp1176
I24
as(I9
I3
I6
tp1177
(lp1178
I16
as(I3
I2
I18
tp1179
(lp1180
I2
as(I10
I23
I15
tp1181
(lp1182
I6
as(I8
I10
I5
tp1183
(lp1184
I1
as(I12
I21
I7
tp1185
(lp1186
I5
as(I6
I17
I23
tp1187
(lp1188
I17
as(I25
I2
I20
tp1189
(lp1190
I11
aI17
aI19
as(I7
I19
I10
tp1191
(lp1192
I24
as(I10
I8
I3
tp1193
(lp1194
I19
as(I18
I24
I9
tp1195
(lp1196
I24
as(I1
I22
I13
tp1197
(lp1198
I12
as(I19
I1
I5
tp1199
(lp1200
I1
as(I18
I4
I17
tp1201
(lp1202
I25
as(I22
I14
I7
tp1203
(lp1204
I5
aI18
as(I6
I16
I9
tp1205
(lp1206
I24
as(I16
I20
I25
tp1207
(lp1208
I20
as(I10
I25
I7
tp1209
(lp1210
I23
as(I14
I23
I3
tp1211
(lp1212
I24
as(I11
I5
I21
tp1213
(lp1214
I5
as(I13
I16
I3
tp1215
(lp1216
I11
as(I11
I25
I3
tp1217
(lp1218
I19
aI24
as(I21
I18
I13
tp1219
(lp1220
I10
as(I15
I3
I15
tp1221
(lp1222
I4
aI6
aI13
aI21
as(I14
I24
I20
tp1223
(lp1224
I25
as(I12
I16
I19
tp1225
(lp1226
I2
aI3
as(I24
I18
I2
tp1227
(lp1228
I18
as(I4
I10
I9
tp1229
(lp1230
I24
as(I13
I16
I12
tp1231
(lp1232
I2
aI16
aI22
as(I6
I16
I3
tp1233
(lp1234
I11
as(I16
I12
I6
tp1235
(lp1236
I15
as(I21
I2
I8
tp1237
(lp1238
I13
aI19
aI22
as(I2
I25
I7
tp1239
(lp1240
I23
as(I12
I9
I16
tp1241
(lp1242
I6
aI11
as(I6
I13
I4
tp1243
(lp1244
I18
as(I5
I7
I24
tp1245
(lp1246
I23
as(I13
I8
I19
tp1247
(lp1248
I8
as(I2
I25
I16
tp1249
(lp1250
I6
aI11
as(I16
I13
I6
tp1251
(lp1252
I15
as(I7
I19
I2
tp1253
(lp1254
I19
as(I11
I8
I1
tp1255
(lp1256
I21
as(I1
I19
I14
tp1257
(lp1258
I11
as(I9
I12
I25
tp1259
(lp1260
I4
as(I20
I8
I21
tp1261
(lp1262
I8
as(I24
I14
I13
tp1263
(lp1264
I15
as(I19
I22
I12
tp1265
(lp1266
I22
as(I3
I15
I19
tp1267
(lp1268
I8
as(I23
I10
I23
tp1269
(lp1270
I7
aI9
aI17
aI24
as(I14
I23
I11
tp1271
(lp1272
I3
aI20
as(I4
I19
I2
tp1273
(lp1274
I19
as(I7
I5
I18
tp1275
(lp1276
I4
aI10
as(I7
I11
I7
tp1277
(lp1278
I5
aI18
aI22
aI23
as(I5
I22
I8
tp1279
(lp1280
I19
aI22
as(I4
I10
I1
tp1281
(lp1282
I10
as(I8
I11
I16
tp1283
(lp1284
I11
as(I18
I24
I4
tp1285
(lp1286
I15
aI25
as(I22
I19
I2
tp1287
(lp1288
I19
as(I11
I7
I18
tp1289
(lp1290
I7
as(I16
I13
I18
tp1291
(lp1292
I10
as(I25
I10
I24
tp1293
(lp1294
I10
as(I21
I2
I16
tp1295
(lp1296
I2
as(I9
I3
I22
tp1297
(lp1298
I3
as(I8
I20
I7
tp1299
(lp1300
I23
as(I12
I9
I24
tp1301
(lp1302
I9
as(I11
I8
I12
tp1303
(lp1304
I13
aI22
as(I6
I13
I12
tp1305
(lp1306
I13
aI22
as(I12
I25
I11
tp1307
(lp1308
I20
as(I22
I5
I21
tp1309
(lp1310
I1
aI5
as(I4
I24
I4
tp1311
(lp1312
I14
aI15
aI18
aI25
as(I16
I20
I19
tp1313
(lp1314
I20
as(I1
I22
I7
tp1315
(lp1316
I22
as(I14
I23
I20
tp1317
(lp1318
I17
as(I14
I22
I4
tp1319
(lp1320
I18
as(I8
I13
I18
tp1321
(lp1322
I10
as(I6
I18
I2
tp1323
(lp1324
I18
as(I25
I12
I4
tp1325
(lp1326
I15
aI18
as(I12
I16
I10
tp1327
(lp1328
I18
as(I18
I4
I1
tp1329
(lp1330
I5
aI14
as(I11
I8
I19
tp1331
(lp1332
I8
as(I4
I24
I13
tp1333
(lp1334
I10
as(I19
I7
I17
tp1335
(lp1336
I23
as(I23
I14
I1
tp1337
(lp1338
I14
as(I13
I17
I15
tp1339
(lp1340
I4
aI6
as(I10
I25
I23
tp1341
(lp1342
I9
aI17
as(I22
I1
I13
tp1343
(lp1344
I10
as(I6
I13
I2
tp1345
(lp1346
I12
as(I5
I20
I1
tp1347
(lp1348
I14
as(I21
I18
I14
tp1349
(lp1350
I4
as(I19
I22
I2
tp1351
(lp1352
I12
aI16
aI18
as(I18
I6
I15
tp1353
(lp1354
I6
as(I10
I23
I1
tp1355
(lp1356
I5
as(I20
I16
I20
tp1357
(lp1358
I11
aI17
aI19
aI25
as(I20
I17
I6
tp1359
(lp1360
I17
as(I15
I7
I8
tp1361
(lp1362
I22
as(I12
I21
I8
tp1363
(lp1364
I13
aI21
as(I6
I17
I4
tp1365
(lp1366
I25
as(I7
I5
I4
tp1367
(lp1368
I14
as(I3
I2
I10
tp1369
(lp1370
I18
as(I10
I8
I18
tp1371
(lp1372
I2
aI7
as(I21
I18
I4
tp1373
(lp1374
I18
as(I13
I16
I8
tp1375
(lp1376
I19
aI22
as(I19
I1
I20
tp1377
(lp1378
I11
as(I1
I19
I21
tp1379
(lp1380
I8
aI15
as(I6
I16
I24
tp1381
(lp1382
I3
as(I20
I8
I12
tp1383
(lp1384
I13
as(I13
I8
I3
tp1385
(lp1386
I19
as(I19
I4
I8
tp1387
(lp1388
I13
aI21
as(I20
I5
I3
tp1389
(lp1390
I11
aI22
as(I5
I22
I3
tp1391
(lp1392
I22
as(I14
I22
I12
tp1393
(lp1394
I22
as(I8
I13
I10
tp1395
(lp1396
I13
as(I6
I18
I10
tp1397
(lp1398
I18
as(I4
I18
I1
tp1399
(lp1400
I10
as(I12
I16
I2
tp1401
(lp1402
I16
aI19
as(I9
I12
I9
tp1403
(lp1404
I6
aI23
aI24
aI25
as(I15
I3
I24
tp1405
(lp1406
I3
as(I4
I10
I24
tp1407
(lp1408
I10
as(I20
I16
I25
tp1409
(lp1410
I9
aI17
as(I8
I11
I21
tp1411
(lp1412
I1
aI5
as(I22
I1
I5
tp1413
(lp1414
I1
aI14
aI21
as(I6
I16
I15
tp1415
(lp1416
I4
aI13
as(I13
I16
I19
tp1417
(lp1418
I2
as(I4
I19
I18
tp1419
(lp1420
I2
as(I5
I20
I9
tp1421
(lp1422
I25
as(I2
I25
I20
tp1423
(lp1424
I17
aI25
as(I15
I9
I17
tp1425
(lp1426
I6
aI23
aI25
as(I24
I14
I18
tp1427
(lp1428
I4
as(I21
I12
I13
tp1429
(lp1430
I8
aI12
as(I8
I10
I12
tp1431
(lp1432
I13
as(I10
I4
I18
tp1433
(lp1434
I4
aI7
as(I20
I17
I14
tp1435
(lp1436
I4
as(I11
I7
I2
tp1437
(lp1438
I18
as(I9
I15
I13
tp1439
(lp1440
I15
as(I25
I2
I13
tp1441
(lp1442
I12
as(I3
I15
I24
tp1443
(lp1444
I9
as(I7
I15
I22
tp1445
(lp1446
I8
aI12
as(I14
I22
I19
tp1447
(lp1448
I8
as(I10
I8
I10
tp1449
(lp1450
I1
aI13
aI18
aI24
as(I2
I3
I2
tp1451
(lp1452
I12
aI16
aI18
aI19
as(I24
I1
I5
tp1453
(lp1454
I1
aI21
as(I5
I11
I7
tp1455
(lp1456
I22
aI23
as(I11
I8
I2
tp1457
(lp1458
I19
as(I13
I16
I15
tp1459
(lp1460
I4
aI6
as(I20
I8
I4
tp1461
(lp1462
I15
as(I18
I24
I17
tp1463
(lp1464
I23
as(I20
I5
I11
tp1465
(lp1466
I3
aI14
as(I24
I14
I15
tp1467
(lp1468
I4
as(I14
I23
I4
tp1469
(lp1470
I18
aI25
as(I1
I24
I21
tp1471
(lp1472
I15
as(I8
I13
I2
tp1473
(lp1474
I12
as(I5
I22
I15
tp1475
(lp1476
I13
as(I7
I11
I22
tp1477
(lp1478
I3
aI12
as(I25
I12
I20
tp1479
(lp1480
I11
aI19
as(I24
I4
I24
tp1481
(lp1482
I3
aI9
aI10
aI23
as(I15
I9
I6
tp1483
(lp1484
I9
aI17
as(I2
I21
I1
tp1485
(lp1486
I21
as(I10
I23
I4
tp1487
(lp1488
I25
as(I16
I20
I4
tp1489
(lp1490
I25
as(I24
I4
I13
tp1491
(lp1492
I15
as(I21
I2
I1
tp1493
(lp1494
I10
as(I5
I20
I17
tp1495
(lp1496
I20
as(I3
I2
I19
tp1497
(lp1498
I2
as(I21
I12
I5
tp1499
(lp1500
I7
as(I15
I3
I19
tp1501
(lp1502
I3
as(I7
I15
I8
tp1503
(lp1504
I13
aI21
as(I18
I6
I7
tp1505
(lp1506
I23
as(I6
I17
I20
tp1507
(lp1508
I17
as(I8
I20
I22
tp1509
(lp1510
I3
aI7
as(I16
I6
I17
tp1511
(lp1512
I6
as(I7
I19
I5
tp1513
(lp1514
I21
as(I10
I8
I2
tp1515
(lp1516
I19
as(I21
I1
I14
tp1517
(lp1518
I1
as(I21
I1
I13
tp1519
(lp1520
I10
as(I14
I17
I23
tp1521
(lp1522
I17
as(I1
I19
I5
tp1523
(lp1524
I21
as(I22
I5
I7
tp1525
(lp1526
I5
aI18
as(I17
I13
I9
tp1527
(lp1528
I24
as(I1
I21
I1
tp1529
(lp1530
I5
aI10
aI14
aI21
as(I20
I5
I19
tp1531
(lp1532
I3
aI8
as(I10
I25
I4
tp1533
(lp1534
I25
as(I1
I24
I10
tp1535
(lp1536
I18
aI24
as(I11
I5
I20
tp1537
(lp1538
I25
as(I4
I24
I6
tp1539
(lp1540
I9
as(I12
I16
I18
tp1541
(lp1542
I2
as(I6
I16
I25
tp1543
(lp1544
I20
as(I21
I18
I19
tp1545
(lp1546
I2
as(I15
I9
I15
tp1547
(lp1548
I4
aI6
aI13
aI21
as(I3
I9
I20
tp1549
(lp1550
I25
as(I13
I17
I23
tp1551
(lp1552
I17
as(I9
I15
I5
tp1553
(lp1554
I21
as(I16
I20
I17
tp1555
(lp1556
I20
aI25
as(I22
I1
I21
tp1557
(lp1558
I1
aI5
as(I3
I15
I16
tp1559
(lp1560
I6
as(I5
I20
I25
tp1561
(lp1562
I20
as(I2
I25
I4
tp1563
(lp1564
I25
as(I8
I11
I20
tp1565
(lp1566
I11
as(I12
I9
I17
tp1567
(lp1568
I25
as(I5
I22
I7
tp1569
(lp1570
I22
aI23
as(I10
I4
I2
tp1571
(lp1572
I18
as(I12
I21
I16
tp1573
(lp1574
I6
as(I13
I8
I16
tp1575
(lp1576
I2
as(I22
I19
I16
tp1577
(lp1578
I2
as(I1
I22
I8
tp1579
(lp1580
I22
as(I18
I6
I10
tp1581
(lp1582
I13
as(I4
I24
I17
tp1583
(lp1584
I23
as(I14
I22
I3
tp1585
(lp1586
I19
aI22
as(I12
I9
I3
tp1587
(lp1588
I24
as(I2
I3
I18
tp1589
(lp1590
I7
as(I24
I1
I21
tp1591
(lp1592
I1
as(I25
I12
I13
tp1593
(lp1594
I12
as(I1
I19
I13
tp1595
(lp1596
I8
as(I24
I14
I1
tp1597
(lp1598
I5
aI14
as(I9
I12
I22
tp1599
(lp1600
I12
as(I20
I8
I20
tp1601
(lp1602
I11
aI17
aI19
aI25
as(I19
I7
I8
tp1603
(lp1604
I21
aI22
as(I24
I4
I6
tp1605
(lp1606
I15
as(I16
I6
I15
tp1607
(lp1608
I6
as(I22
I1
I10
tp1609
(lp1610
I1
as(I4
I19
I3
tp1611
(lp1612
I19
as(I4
I18
I25
tp1613
(lp1614
I20
as(I21
I18
I7
tp1615
(lp1616
I18
as(I16
I13
I10
tp1617
(lp1618
I13
as(I5
I22
I23
tp1619
(lp1620
I24
as(I18
I24
I7
tp1621
(lp1622
I22
aI23
as(I16
I13
I19
tp1623
(lp1624
I8
as(I16
I12
I13
tp1625
(lp1626
I12
as(I3
I15
I8
tp1627
(lp1628
I13
aI21
as(I6
I16
I12
tp1629
(lp1630
I2
aI16
as(I15
I9
I21
tp1631
(lp1632
I5
as(I10
I8
I21
tp1633
(lp1634
I8
as(I21
I12
I21
tp1635
(lp1636
I1
aI5
aI8
aI15
as(I8
I11
I12
tp1637
(lp1638
I16
as(I5
I11
I22
tp1639
(lp1640
I3
aI12
as(I10
I4
I10
tp1641
(lp1642
I1
aI13
aI18
aI24
as(I14
I24
I11
tp1643
(lp1644
I3
aI20
as(I20
I8
I11
tp1645
(lp1646
I3
aI14
as(I1
I21
I18
tp1647
(lp1648
I7
as(I13
I16
I2
tp1649
(lp1650
I16
as(I25
I10
I9
tp1651
(lp1652
I23
aI24
as(I14
I22
I11
tp1653
(lp1654
I3
aI16
as(I8
I13
I19
tp1655
(lp1656
I2
aI3
as(I5
I22
I11
tp1657
(lp1658
I3
as(I22
I14
I22
tp1659
(lp1660
I3
aI7
aI8
aI12
as(I2
I21
I22
tp1661
(lp1662
I8
as(I24
I14
I23
tp1663
(lp1664
I7
as(I11
I5
I4
tp1665
(lp1666
I14
aI18
as(I4
I19
I11
tp1667
(lp1668
I3
aI20
as(I18
I21
I14
tp1669
(lp1670
I1
as(I7
I11
I14
tp1671
(lp1672
I11
as(I21
I12
I10
tp1673
(lp1674
I13
as(I17
I14
I3
tp1675
(lp1676
I11
as(I8
I13
I5
tp1677
(lp1678
I1
as(I18
I24
I15
tp1679
(lp1680
I6
as(I1
I24
I15
tp1681
(lp1682
I6
as(I11
I7
I5
tp1683
(lp1684
I7
as(I19
I22
I3
tp1685
(lp1686
I11
aI22
as(I25
I2
I6
tp1687
(lp1688
I16
as(I7
I5
I3
tp1689
(lp1690
I11
as(I3
I2
I11
tp1691
(lp1692
I16
aI20
as(I10
I8
I13
tp1693
(lp1694
I8
aI12
aI15
as(I2
I3
I11
tp1695
(lp1696
I3
as(I5
I11
I14
tp1697
(lp1698
I4
aI11
as(I19
I1
I19
tp1699
(lp1700
I2
aI3
aI8
aI20
as(I1
I19
I20
tp1701
(lp1702
I19
as(I18
I24
I25
tp1703
(lp1704
I9
aI17
as(I20
I8
I3
tp1705
(lp1706
I19
aI22
as(I20
I5
I4
tp1707
(lp1708
I14
as(I1
I24
I5
tp1709
(lp1710
I7
aI14
as(I25
I10
I1
tp1711
(lp1712
I10
as(I12
I25
I19
tp1713
(lp1714
I20
as(I6
I18
I9
tp1715
(lp1716
I23
aI25
as(I8
I20
I15
tp1717
(lp1718
I4
as(I5
I22
I19
tp1719
(lp1720
I3
as(I9
I12
I6
tp1721
(lp1722
I15
aI16
as(I13
I6
I23
tp1723
(lp1724
I17
as(I15
I9
I13
tp1725
(lp1726
I10
as(I19
I7
I24
tp1727
(lp1728
I23
as(I18
I6
I13
tp1729
(lp1730
I15
as(I10
I23
I3
tp1731
(lp1732
I22
as(I16
I20
I18
tp1733
(lp1734
I4
as(I16
I12
I20
tp1735
(lp1736
I19
as(I5
I20
I14
tp1737
(lp1738
I4
aI11
as(I22
I19
I22
tp1739
(lp1740
I3
aI7
aI8
aI12
as(I21
I12
I2
tp1741
(lp1742
I12
as(I17
I14
I11
tp1743
(lp1744
I14
as(I8
I10
I15
tp1745
(lp1746
I13
as(I6
I13
I18
tp1747
(lp1748
I10
as(I20
I17
I15
tp1749
(lp1750
I6
as(I18
I24
I23
tp1751
(lp1752
I9
aI24
as(I12
I21
I1
tp1753
(lp1754
I21
as(I11
I8
I11
tp1755
(lp1756
I3
aI14
aI16
aI20
as(I8
I20
I13
tp1757
(lp1758
I15
as(I6
I13
I10
tp1759
(lp1760
I13
as(I7
I5
I11
tp1761
(lp1762
I14
as(I14
I22
I18
tp1763
(lp1764
I7
as(I10
I8
I5
tp1765
(lp1766
I21
as(I19
I1
I11
tp1767
(lp1768
I14
as(I14
I24
I18
tp1769
(lp1770
I10
as(I22
I5
I12
tp1771
(lp1772
I13
as(I11
I25
I9
tp1773
(lp1774
I25
as(I17
I14
I19
tp1775
(lp1776
I3
as(I19
I4
I17
tp1777
(lp1778
I25
as(I10
I25
I13
tp1779
(lp1780
I15
as(I14
I23
I5
tp1781
(lp1782
I7
as(I23
I14
I25
tp1783
(lp1784
I4
as(I6
I18
I17
tp1785
(lp1786
I23
aI25
as(I7
I11
I17
tp1787
(lp1788
I20
as(I24
I18
I3
tp1789
(lp1790
I19
aI22
as(I17
I14
I20
tp1791
(lp1792
I11
aI19
aI25
as(I13
I6
I15
tp1793
(lp1794
I4
aI6
as(I15
I9
I5
tp1795
(lp1796
I7
as(I2
I21
I6
tp1797
(lp1798
I15
as(I5
I22
I24
tp1799
(lp1800
I3
as(I22
I1
I18
tp1801
(lp1802
I10
as(I20
I17
I23
tp1803
(lp1804
I17
as(I22
I5
I14
tp1805
(lp1806
I5
as(I3
I2
I16
tp1807
(lp1808
I2
aI12
as(I20
I16
I9
tp1809
(lp1810
I6
as(I8
I13
I24
tp1811
(lp1812
I10
as(I17
I20
I25
tp1813
(lp1814
I4
aI20
as(I17
I13
I15
tp1815
(lp1816
I13
aI21
as(I16
I13
I1
tp1817
(lp1818
I10
as(I9
I15
I4
tp1819
(lp1820
I15
as(I8
I20
I21
tp1821
(lp1822
I1
as(I25
I11
I14
tp1823
(lp1824
I11
as(I12
I25
I4
tp1825
(lp1826
I25
as(I24
I1
I14
tp1827
(lp1828
I1
as(I18
I6
I23
tp1829
(lp1830
I9
aI17
as(I19
I1
I3
tp1831
(lp1832
I11
aI24
as(I14
I24
I10
tp1833
(lp1834
I24
as(I18
I4
I19
tp1835
(lp1836
I20
as(I20
I8
I19
tp1837
(lp1838
I2
aI3
aI8
as(I1
I21
I14
tp1839
(lp1840
I4
aI5
as(I22
I14
I5
tp1841
(lp1842
I1
aI14
as(I19
I4
I25
tp1843
(lp1844
I4
as(I20
I5
I20
tp1845
(lp1846
I11
aI17
aI19
aI25
as(I22
I5
I3
tp1847
(lp1848
I11
aI24
as(I25
I10
I17
tp1849
(lp1850
I23
as(I11
I5
I11
tp1851
(lp1852
I3
aI14
aI20
as(I23
I14
I17
tp1853
(lp1854
I20
aI25
as(I6
I18
I25
tp1855
(lp1856
I4
as(I4
I18
I16
tp1857
(lp1858
I2
as(I15
I3
I9
tp1859
(lp1860
I24
as(I19
I7
I2
tp1861
(lp1862
I12
aI16
aI18
as(I10
I23
I6
tp1863
(lp1864
I17
as(I4
I10
I11
tp1865
(lp1866
I3
as(I13
I16
I18
tp1867
(lp1868
I2
as(I3
I9
I19
tp1869
(lp1870
I2
aI20
as(I11
I7
I20
tp1871
(lp1872
I17
as(I23
I10
I17
tp1873
(lp1874
I25
as(I21
I2
I10
tp1875
(lp1876
I18
as(I9
I15
I23
tp1877
(lp1878
I7
aI17
as(I18
I21
I22
tp1879
(lp1880
I8
as(I19
I7
I12
tp1881
(lp1882
I22
as(I3
I2
I24
tp1883
(lp1884
I10
as(I14
I17
I19
tp1885
(lp1886
I20
as(I4
I24
I25
tp1887
(lp1888
I9
aI17
as(I23
I14
I4
tp1889
(lp1890
I14
as(I10
I4
I5
tp1891
(lp1892
I14
as(I17
I6
I23
tp1893
(lp1894
I9
aI24
as(I21
I1
I8
tp1895
(lp1896
I13
as(I5
I7
I22
tp1897
(lp1898
I7
as(I7
I15
I5
tp1899
(lp1900
I1
aI21
as(I24
I14
I3
tp1901
(lp1902
I11
aI19
as(I12
I25
I12
tp1903
(lp1904
I2
aI13
aI16
as(I2
I3
I19
tp1905
(lp1906
I3
aI8
aI20
as(I24
I1
I22
tp1907
(lp1908
I7
as(I23
I14
I7
tp1909
(lp1910
I5
aI18
as(I9
I12
I23
tp1911
(lp1912
I7
as(I13
I6
I24
tp1913
(lp1914
I9
aI23
as(I9
I3
I16
tp1915
(lp1916
I11
as(I25
I10
I20
tp1917
(lp1918
I11
as(I16
I6
I14
tp1919
(lp1920
I4
as(I18
I6
I12
tp1921
(lp1922
I16
as(I19
I7
I19
tp1923
(lp1924
I2
aI3
aI8
aI20
as(I11
I5
I3
tp1925
(lp1926
I22
aI24
as(I8
I20
I19
tp1927
(lp1928
I2
aI3
aI20
as(I7
I11
I1
tp1929
(lp1930
I14
as(I15
I3
I14
tp1931
(lp1932
I11
as(I17
I14
I4
tp1933
(lp1934
I14
as(I4
I10
I3
tp1935
(lp1936
I24
as(I4
I24
I14
tp1937
(lp1938
I1
as(I7
I15
I18
tp1939
(lp1940
I4
aI10
as(I11
I7
I12
tp1941
(lp1942
I22
as(I23
I10
I25
tp1943
(lp1944
I4
as(I21
I2
I18
tp1945
(lp1946
I2
as(I5
I7
I23
tp1947
(lp1948
I7
as(I9
I3
I20
tp1949
(lp1950
I11
aI19
as(I10
I23
I18
tp1951
(lp1952
I4
aI7
as(I2
I3
I12
tp1953
(lp1954
I16
aI22
as(I8
I11
I13
tp1955
(lp1956
I12
as(I5
I11
I21
tp1957
(lp1958
I1
as(I10
I4
I13
tp1959
(lp1960
I12
aI15
as(I17
I6
I15
tp1961
(lp1962
I6
as(I25
I11
I4
tp1963
(lp1964
I14
as(I19
I4
I2
tp1965
(lp1966
I12
aI18
as(I1
I22
I1
tp1967
(lp1968
I5
aI10
aI14
aI21
as(I24
I14
I7
tp1969
(lp1970
I5
as(I7
I19
I20
tp1971
(lp1972
I19
as(I8
I13
I12
tp1973
(lp1974
I13
as(I11
I25
I24
tp1975
(lp1976
I9
as(I18
I6
I25
tp1977
(lp1978
I9
aI17
as(I25
I12
I2
tp1979
(lp1980
I12
aI16
as(I9
I12
I15
tp1981
(lp1982
I13
as(I13
I6
I16
tp1983
(lp1984
I6
as(I22
I14
I21
tp1985
(lp1986
I1
aI5
as(I3
I2
I3
tp1987
(lp1988
I11
aI19
aI22
aI24
as(I13
I17
I9
tp1989
(lp1990
I25
as(I18
I21
I15
tp1991
(lp1992
I21
as(I22
I1
I3
tp1993
(lp1994
I11
as(I16
I12
I19
tp1995
(lp1996
I2
aI8
as(I12
I9
I11
tp1997
(lp1998
I20
as(I4
I19
I8
tp1999
(lp2000
I19
as(I5
I20
I7
tp2001
(lp2002
I18
aI23
as(I21
I18
I8
tp2003
(lp2004
I19
as(I15
I9
I18
tp2005
(lp2006
I7
as(I17
I13
I20
tp2007
(lp2008
I19
as(I8
I10
I22
tp2009
(lp2010
I3
aI12
as(I8
I13
I3
tp2011
(lp2012
I24
as(I3
I9
I3
tp2013
(lp2014
I11
aI19
aI22
aI24
as(I15
I7
I10
tp2015
(lp2016
I18
as(I12
I21
I10
tp2017
(lp2018
I1
as(I11
I7
I4
tp2019
(lp2020
I18
as(I16
I13
I2
tp2021
(lp2022
I12
aI18
aI19
as(I20
I17
I19
tp2023
(lp2024
I2
as(I3
I15
I3
tp2025
(lp2026
I11
aI19
aI22
aI24
as(I16
I20
I9
tp2027
(lp2028
I25
as(I10
I8
I12
tp2029
(lp2030
I22
as(I8
I11
I5
tp2031
(lp2032
I14
as(I12
I9
I2
tp2033
(lp2034
I16
as(I19
I1
I18
tp2035
(lp2036
I10
as(I23
I10
I9
tp2037
(lp2038
I24
aI25
as(I24
I14
I9
tp2039
(lp2040
I25
as(I20
I8
I2
tp2041
(lp2042
I12
as(I13
I8
I1
tp2043
(lp2044
I21
as(I16
I6
I11
tp2045
(lp2046
I3
aI14
aI20
as(I19
I22
I19
tp2047
(lp2048
I2
aI3
aI8
aI20
as(I3
I2
I22
tp2049
(lp2050
I7
aI12
as(I25
I10
I14
tp2051
(lp2052
I1
aI5
as(I9
I15
I24
tp2053
(lp2054
I10
as(I5
I22
I12
tp2055
(lp2056
I22
as(I20
I17
I4
tp2057
(lp2058
I15
aI25
as(I9
I12
I7
tp2059
(lp2060
I22
as(I13
I6
I8
tp2061
(lp2062
I21
as(I1
I21
I10
tp2063
(lp2064
I13
aI18
as(I2
I21
I15
tp2065
(lp2066
I21
as(I3
I15
I12
tp2067
(lp2068
I13
as(I20
I16
I19
tp2069
(lp2070
I2
aI3
as(I24
I4
I11
tp2071
(lp2072
I14
as(I11
I25
I20
tp2073
(lp2074
I17
aI25
as(I17
I20
I24
tp2075
(lp2076
I9
as(I18
I21
I7
tp2077
(lp2078
I5
aI22
as(I2
I25
I18
tp2079
(lp2080
I4
aI7
as(I6
I16
I19
tp2081
(lp2082
I2
as(I3
I9
I11
tp2083
(lp2084
I16
aI20
as(I15
I7
I18
tp2085
(lp2086
I7
as(I12
I21
I2
tp2087
(lp2088
I19
as(I16
I13
I12
tp2089
(lp2090
I13
aI22
as(I25
I2
I15
tp2091
(lp2092
I13
as(I7
I5
I10
tp2093
(lp2094
I1
as(I24
I14
I20
tp2095
(lp2096
I11
as(I14
I17
I11
tp2097
(lp2098
I3
aI16
aI20
as(I8
I20
I4
tp2099
(lp2100
I25
as(I12
I9
I10
tp2101
(lp2102
I24
as(I19
I1
I10
tp2103
(lp2104
I1
as(I22
I5
I13
tp2105
(lp2106
I10
as(I19
I22
I13
tp2107
(lp2108
I12
as(I19
I4
I18
tp2109
(lp2110
I4
as(I16
I20
I6
tp2111
(lp2112
I9
aI17
as(I10
I25
I10
tp2113
(lp2114
I1
aI13
aI18
aI24
as(I11
I5
I18
tp2115
(lp2116
I7
as(I18
I24
I10
tp2117
(lp2118
I24
as(I6
I18
I16
tp2119
(lp2120
I2
aI12
as(I10
I23
I5
tp2121
(lp2122
I7
as(I7
I11
I16
tp2123
(lp2124
I11
as(I25
I12
I18
tp2125
(lp2126
I2
aI7
as(I10
I23
I9
tp2127
(lp2128
I23
aI25
as(I22
I1
I11
tp2129
(lp2130
I14
as(I4
I10
I18
tp2131
(lp2132
I7
aI10
as(I2
I21
I7
tp2133
(lp2134
I5
as(I12
I25
I2
tp2135
(lp2136
I18
aI19
as(I9
I15
I6
tp2137
(lp2138
I15
aI17
as(I1
I22
I11
tp2139
(lp2140
I3
as(I18
I24
I18
tp2141
(lp2142
I2
aI4
aI7
aI10
as(I16
I12
I3
tp2143
(lp2144
I19
aI22
as(I17
I20
I16
tp2145
(lp2146
I11
as(I5
I20
I23
tp2147
(lp2148
I9
aI17
as(I13
I16
I4
tp2149
(lp2150
I18
as(I17
I13
I4
tp2151
(lp2152
I15
as(I17
I13
I23
tp2153
(lp2154
I7
aI24
as(I17
I6
I24
tp2155
(lp2156
I9
as(I17
I20
I11
tp2157
(lp2158
I20
as(I13
I8
I22
tp2159
(lp2160
I3
aI8
as(I16
I6
I2
tp2161
(lp2162
I19
as(I1
I22
I18
tp2163
(lp2164
I7
as(I4
I24
I18
tp2165
(lp2166
I7
aI10
as(I7
I19
I7
tp2167
(lp2168
I5
aI18
aI22
aI23
as(I23
I14
I20
tp2169
(lp2170
I11
as(I2
I3
I20
tp2171
(lp2172
I11
as(I11
I8
I3
tp2173
(lp2174
I19
aI22
as(I19
I1
I2
tp2175
(lp2176
I18
as(I1
I19
I3
tp2177
(lp2178
I19
as(I18
I4
I18
tp2179
(lp2180
I2
aI4
aI7
aI10
as(I22
I5
I24
tp2181
(lp2182
I10
as(I22
I14
I4
tp2183
(lp2184
I14
as(I20
I5
I21
tp2185
(lp2186
I5
as(I5
I7
I8
tp2187
(lp2188
I22
as(I14
I23
I14
tp2189
(lp2190
I1
aI4
aI5
aI11
as(I11
I5
I10
tp2191
(lp2192
I1
as(I4
I24
I10
tp2193
(lp2194
I24
as(I4
I18
I19
tp2195
(lp2196
I2
as(I7
I11
I24
tp2197
(lp2198
I3
as(I20
I16
I6
tp2199
(lp2200
I16
as(I7
I15
I4
tp2201
(lp2202
I15
as(I13
I16
I11
tp2203
(lp2204
I16
as(I11
I7
I23
tp2205
(lp2206
I7
as(I6
I17
I11
tp2207
(lp2208
I20
as(I16
I12
I11
tp2209
(lp2210
I3
aI20
as(I25
I11
I17
tp2211
(lp2212
I6
aI20
as(I2
I25
I2
tp2213
(lp2214
I16
aI18
aI19
as(I25
I11
I24
tp2215
(lp2216
I3
as(I14
I17
I16
tp2217
(lp2218
I6
as(I21
I12
I19
tp2219
(lp2220
I2
as(I23
I14
I5
tp2221
(lp2222
I1
aI14
as(I25
I11
I19
tp2223
(lp2224
I3
as(I17
I6
I16
tp2225
(lp2226
I6
as(I24
I4
I18
tp2227
(lp2228
I4
as(I5
I7
I21
tp2229
(lp2230
I8
aI15
as(I14
I17
I5
tp2231
(lp2232
I7
as(I19
I22
I7
tp2233
(lp2234
I22
as(I1
I22
I10
tp2235
(lp2236
I13
aI18
as(I3
I15
I21
tp2237
(lp2238
I15
as(I17
I13
I16
tp2239
(lp2240
I12
as(I14
I22
I1
tp2241
(lp2242
I5
aI21
as(I8
I13
I21
tp2243
(lp2244
I1
aI5
aI15
as(I6
I18
I7
tp2245
(lp2246
I18
as(I17
I20
I17
tp2247
(lp2248
I6
aI20
aI23
aI25
as(I25
I12
I11
tp2249
(lp2250
I16
as(I1
I19
I11
tp2251
(lp2252
I3
aI20
as(I18
I4
I10
tp2253
(lp2254
I1
aI13
as(I13
I6
I25
tp2255
(lp2256
I9
as(I22
I14
I12
tp2257
(lp2258
I16
as(I22
I19
I7
tp2259
(lp2260
I18
as(I16
I6
I9
tp2261
(lp2262
I6
as(I22
I1
I8
tp2263
(lp2264
I13
aI21
as(I21
I1
I7
tp2265
(lp2266
I18
as(I17
I20
I9
tp2267
(lp2268
I25
as(I21
I18
I1
tp2269
(lp2270
I5
aI10
aI14
as(I23
I10
I24
tp2271
(lp2272
I10
as(I20
I17
I25
tp2273
(lp2274
I4
aI9
aI17
as(I15
I7
I5
tp2275
(lp2276
I7
as(I8
I20
I3
tp2277
(lp2278
I11
aI19
as(I21
I2
I19
tp2279
(lp2280
I2
as(I9
I3
I19
tp2281
(lp2282
I3
as(I16
I6
I20
tp2283
(lp2284
I17
aI25
as(I8
I11
I2
tp2285
(lp2286
I16
as(I5
I11
I20
tp2287
(lp2288
I11
as(I24
I18
I23
tp2289
(lp2290
I7
aI17
as(I10
I4
I12
tp2291
(lp2292
I2
as(I24
I18
I10
tp2293
(lp2294
I13
aI18
as(I19
I4
I3
tp2295
(lp2296
I11
as(I19
I7
I20
tp2297
(lp2298
I17
as(I7
I19
I23
tp2299
(lp2300
I17
aI24
as(I6
I18
I15
tp2301
(lp2302
I4
aI13
as(I8
I20
I8
tp2303
(lp2304
I13
aI19
aI21
aI22
as(I5
I22
I13
tp2305
(lp2306
I12
as(I12
I16
I15
tp2307
(lp2308
I6
as(I18
I4
I2
tp2309
(lp2310
I19
as(I13
I6
I17
tp2311
(lp2312
I6
as(I19
I7
I18
tp2313
(lp2314
I7
as(I13
I17
I8
tp2315
(lp2316
I19
aI21
as(I10
I25
I18
tp2317
(lp2318
I4
aI7
as(I16
I12
I18
tp2319
(lp2320
I10
as(I5
I20
I4
tp2321
(lp2322
I25
as(I11
I8
I13
tp2323
(lp2324
I8
as(I12
I9
I25
tp2325
(lp2326
I9
as(I21
I12
I8
tp2327
(lp2328
I13
aI19
aI22
as(I13
I17
I6
tp2329
(lp2330
I9
aI17
as(I3
I9
I2
tp2331
(lp2332
I16
as(I15
I7
I13
tp2333
(lp2334
I10
aI12
as(I9
I15
I10
tp2335
(lp2336
I13
as(I8
I20
I11
tp2337
(lp2338
I20
as(I7
I5
I1
tp2339
(lp2340
I5
aI21
as(I3
I15
I11
tp2341
(lp2342
I14
aI16
as(I10
I8
I15
tp2343
(lp2344
I21
as(I5
I11
I12
tp2345
(lp2346
I16
as(I1
I19
I18
tp2347
(lp2348
I2
as(I20
I8
I1
tp2349
(lp2350
I21
as(I14
I17
I25
tp2351
(lp2352
I17
aI20
as(I19
I4
I11
tp2353
(lp2354
I14
as(I19
I22
I16
tp2355
(lp2356
I12
as(I1
I24
I25
tp2357
(lp2358
I9
as(I11
I5
I25
tp2359
(lp2360
I4
as(I23
I14
I24
tp2361
(lp2362
I3
aI10
as(I6
I18
I23
tp2363
(lp2364
I7
as(I4
I18
I2
tp2365
(lp2366
I18
as(I22
I5
I22
tp2367
(lp2368
I3
aI7
aI8
aI12
as(I5
I22
I21
tp2369
(lp2370
I8
aI15
as(I12
I16
I7
tp2371
(lp2372
I18
as(I9
I12
I4
tp2373
(lp2374
I18
as(I13
I6
I9
tp2375
(lp2376
I6
as(I4
I10
I21
tp2377
(lp2378
I1
as(I7
I15
I7
tp2379
(lp2380
I5
aI18
aI22
aI23
as(I2
I21
I12
tp2381
(lp2382
I13
aI22
as(I25
I12
I7
tp2383
(lp2384
I22
as(I24
I4
I10
tp2385
(lp2386
I1
aI13
aI18
as(I21
I2
I4
tp2387
(lp2388
I18
as(I4
I19
I17
tp2389
(lp2390
I20
as(I18
I21
I4
tp2391
(lp2392
I14
aI15
as(I2
I25
I19
tp2393
(lp2394
I3
aI20
as(I13
I17
I20
tp2395
(lp2396
I17
aI25
as(I8
I10
I1
tp2397
(lp2398
I10
as(I6
I13
I16
tp2399
(lp2400
I2
aI12
as(I20
I17
I9
tp2401
(lp2402
I6
aI23
as(I15
I7
I21
tp2403
(lp2404
I1
aI5
aI8
as(I5
I7
I4
tp2405
(lp2406
I18
as(I25
I2
I16
tp2407
(lp2408
I2
as(I9
I3
I11
tp2409
(lp2410
I3
as(I14
I22
I16
tp2411
(lp2412
I12
as(I10
I8
I7
tp2413
(lp2414
I22
as(I20
I17
I16
tp2415
(lp2416
I6
as(I5
I11
I4
tp2417
(lp2418
I25
as(I24
I18
I7
tp2419
(lp2420
I18
as(I7
I19
I21
tp2421
(lp2422
I8
as(I22
I5
I10
tp2423
(lp2424
I1
as(I20
I8
I25
tp2425
(lp2426
I4
as(I22
I14
I3
tp2427
(lp2428
I11
aI24
as(I19
I4
I19
tp2429
(lp2430
I2
aI3
aI8
aI20
as(I20
I5
I14
tp2431
(lp2432
I1
aI5
as(I16
I6
I24
tp2433
(lp2434
I9
as(I14
I23
I7
tp2435
(lp2436
I23
as(I18
I24
I3
tp2437
(lp2438
I24
as(I4
I18
I10
tp2439
(lp2440
I18
as(I11
I8
I22
tp2441
(lp2442
I8
as(I25
I12
I19
tp2443
(lp2444
I2
as(I13
I6
I1
tp2445
(lp2446
I21
as(I4
I10
I13
tp2447
(lp2448
I10
as(I2
I21
I4
tp2449
(lp2450
I15
as(I13
I17
I24
tp2451
(lp2452
I23
as(I12
I25
I17
tp2453
(lp2454
I20
aI25
as(I16
I12
I2
tp2455
(lp2456
I12
aI18
aI19
as(I21
I2
I12
tp2457
(lp2458
I2
as(I4
I19
I25
tp2459
(lp2460
I17
aI20
as(I25
I10
I4
tp2461
(lp2462
I14
aI15
aI18
as(I21
I1
I21
tp2463
(lp2464
I1
aI5
aI8
aI15
as(I17
I13
I7
tp2465
(lp2466
I18
as(I8
I11
I19
tp2467
(lp2468
I2
aI3
aI20
as(I12
I9
I20
tp2469
(lp2470
I25
as(I6
I13
I24
tp2471
(lp2472
I10
as(I17
I6
I25
tp2473
(lp2474
I4
aI9
aI20
as(I7
I15
I13
tp2475
(lp2476
I15
as(I18
I6
I4
tp2477
(lp2478
I15
aI25
as(I18
I24
I22
tp2479
(lp2480
I3
as(I5
I22
I1
tp2481
(lp2482
I14
aI21
as(I12
I25
I6
tp2483
(lp2484
I9
aI17
as(I5
I7
I5
tp2485
(lp2486
I1
aI7
aI14
aI21
as(I22
I19
I11
tp2487
(lp2488
I20
as(I1
I19
I2
tp2489
(lp2490
I19
as(I21
I18
I21
tp2491
(lp2492
I1
aI5
aI8
aI15
as(I20
I8
I17
tp2493
(lp2494
I6
as(I22
I14
I11
tp2495
(lp2496
I14
as(I1
I24
I9
tp2497
(lp2498
I24
as(I20
I5
I22
tp2499
(lp2500
I7
as(I16
I6
I16
tp2501
(lp2502
I2
aI6
aI11
aI12
as(I19
I7
I16
tp2503
(lp2504
I12
as.