(dp0
(I4
I19
I6
tp1
(lp2
I19
as(I8
I17
I23
tp3
(lp4
I17
as(I16
I1
I11
tp5
(lp6
I3
aI10
aI14
as(I18
I15
I17
tp7
(lp8
I8
aI21
as(I4
I10
I5
tp9
(lp10
I9
aI16
as(I3
I6
I11
tp11
(lp12
I14
aI16
as(I7
I5
I16
tp13
(lp14
I5
aI19
as(I23
I3
I1
tp15
(lp16
I20
as(I10
I23
I17
tp17
(lp18
I23
as(I22
I19
I16
tp19
(lp20
I19
as(I5
I7
I20
tp21
(lp22
I2
aI3
as(I24
I20
I21
tp23
(lp24
I2
aI12
as(I15
I21
I5
tp25
(lp26
I9
aI12
as(I6
I3
I23
tp27
(lp28
I21
aI24
as(I16
I1
I12
tp29
(lp30
I20
as(I19
I22
I8
tp31
(lp32
I4
aI17
aI22
as(I22
I12
I4
tp33
(lp34
I2
aI9
as(I6
I1
I18
tp35
(lp36
I13
as(I24
I20
I12
tp37
(lp38
I20
aI21
as(I20
I11
I10
tp39
(lp40
I11
aI14
as(I16
I1
I3
tp41
(lp42
I20
as(I18
I15
I25
tp43
(lp44
I9
aI22
as(I7
I5
I24
tp45
(lp46
I12
as(I22
I19
I8
tp47
(lp48
I4
aI19
as(I13
I14
I23
tp49
(lp50
I24
as(I10
I4
I15
tp51
(lp52
I2
as(I7
I14
I7
tp53
(lp54
I3
aI13
aI15
aI16
as(I12
I22
I5
tp55
(lp56
I9
aI15
as(I9
I18
I8
tp57
(lp58
I17
aI19
as(I11
I25
I22
tp59
(lp60
I25
as(I15
I18
I19
tp61
(lp62
I6
aI25
as(I3
I6
I16
tp63
(lp64
I19
as(I6
I1
I10
tp65
(lp66
I1
as(I22
I12
I20
tp67
(lp68
I12
as(I11
I20
I1
tp69
(lp70
I20
as(I5
I7
I11
tp71
(lp72
I3
as(I18
I9
I13
tp73
(lp74
I14
as(I16
I13
I6
tp75
(lp76
I13
aI18
as(I25
I5
I16
tp77
(lp78
I5
aI7
as(I9
I21
I15
tp79
(lp80
I2
as(I10
I23
I24
tp81
(lp82
I12
aI23
as(I2
I12
I7
tp83
(lp84
I3
as(I7
I14
I15
tp85
(lp86
I2
as(I1
I6
I14
tp87
(lp88
I11
aI13
as(I19
I22
I17
tp89
(lp90
I18
as(I21
I9
I1
tp91
(lp92
I10
as(I11
I25
I14
tp93
(lp94
I10
aI13
as(I8
I17
I8
tp95
(lp96
I4
aI17
aI19
aI22
as(I6
I3
I7
tp97
(lp98
I3
aI16
as(I4
I10
I20
tp99
(lp100
I1
aI3
as(I3
I6
I24
tp101
(lp102
I1
aI23
as(I23
I10
I12
tp103
(lp104
I20
as(I6
I1
I2
tp105
(lp106
I20
as(I18
I15
I9
tp107
(lp108
I5
as(I10
I4
I22
tp109
(lp110
I4
aI8
as(I5
I7
I3
tp111
(lp112
I7
as(I16
I13
I14
tp113
(lp114
I13
as(I20
I24
I10
tp115
(lp116
I1
aI11
as(I25
I11
I3
tp117
(lp118
I11
as(I6
I3
I24
tp119
(lp120
I3
as(I13
I14
I7
tp121
(lp122
I3
aI16
as(I2
I12
I15
tp123
(lp124
I5
aI7
as(I12
I22
I21
tp125
(lp126
I2
aI17
as(I19
I22
I25
tp127
(lp128
I9
aI22
as(I21
I9
I25
tp129
(lp130
I9
as(I24
I2
I24
tp131
(lp132
I1
aI3
aI12
aI23
as(I24
I20
I3
tp133
(lp134
I11
aI20
as(I16
I1
I20
tp135
(lp136
I1
as(I3
I23
I13
tp137
(lp138
I6
as(I18
I9
I18
tp139
(lp140
I6
aI13
aI17
aI25
as(I5
I25
I22
tp141
(lp142
I4
aI25
as(I23
I10
I20
tp143
(lp144
I1
as(I25
I5
I22
tp145
(lp146
I4
aI15
as(I22
I19
I25
tp147
(lp148
I18
aI19
as(I7
I14
I20
tp149
(lp150
I1
as(I9
I18
I13
tp151
(lp152
I18
as(I20
I24
I2
tp153
(lp154
I21
as(I21
I15
I17
tp155
(lp156
I8
as(I15
I21
I12
tp157
(lp158
I20
aI21
as(I6
I3
I16
tp159
(lp160
I7
aI11
as(I2
I12
I23
tp161
(lp162
I24
as(I21
I15
I21
tp163
(lp164
I2
aI12
aI17
as(I21
I9
I17
tp165
(lp166
I8
aI18
as(I24
I20
I11
tp167
(lp168
I3
aI10
as(I12
I2
I9
tp169
(lp170
I4
as(I18
I15
I18
tp171
(lp172
I6
aI13
aI17
aI25
as(I4
I10
I4
tp173
(lp174
I2
aI8
aI9
aI22
as(I3
I23
I21
tp175
(lp176
I17
aI23
as(I1
I16
I5
tp177
(lp178
I16
as(I10
I23
I9
tp179
(lp180
I25
as(I13
I14
I16
tp181
(lp182
I11
as(I12
I22
I12
tp183
(lp184
I5
aI20
aI21
as(I19
I4
I5
tp185
(lp186
I9
as(I25
I11
I19
tp187
(lp188
I6
aI16
as(I15
I21
I4
tp189
(lp190
I2
aI8
as(I24
I2
I3
tp191
(lp192
I7
aI20
as(I14
I13
I20
tp193
(lp194
I3
as(I19
I22
I9
tp195
(lp196
I4
as(I5
I25
I9
tp197
(lp198
I4
aI25
as(I4
I19
I15
tp199
(lp200
I22
as(I12
I2
I1
tp201
(lp202
I20
as(I22
I12
I15
tp203
(lp204
I2
aI5
as(I11
I20
I10
tp205
(lp206
I1
aI14
as(I7
I5
I7
tp207
(lp208
I3
aI13
aI15
aI16
as(I23
I3
I24
tp209
(lp210
I1
aI3
aI12
as(I22
I19
I9
tp211
(lp212
I25
as(I13
I14
I24
tp213
(lp214
I1
as(I10
I4
I14
tp215
(lp216
I1
as(I12
I22
I4
tp217
(lp218
I22
as(I9
I18
I9
tp219
(lp220
I4
aI10
aI25
as(I21
I9
I8
tp221
(lp222
I4
as(I10
I23
I25
tp223
(lp224
I18
as(I15
I18
I16
tp225
(lp226
I19
as(I14
I7
I3
tp227
(lp228
I7
as(I6
I1
I11
tp229
(lp230
I10
as(I2
I24
I3
tp231
(lp232
I24
as(I20
I11
I3
tp233
(lp234
I7
aI11
as(I18
I15
I2
tp235
(lp236
I15
as(I13
I16
I25
tp237
(lp238
I19
as(I5
I7
I10
tp239
(lp240
I11
as(I18
I9
I10
tp241
(lp242
I9
as(I16
I13
I7
tp243
(lp244
I13
as(I7
I5
I15
tp245
(lp246
I5
aI22
as(I21
I15
I4
tp247
(lp248
I9
aI22
as(I21
I15
I16
tp249
(lp250
I7
as(I17
I8
I17
tp251
(lp252
I8
aI18
aI21
aI23
as(I19
I4
I21
tp253
(lp254
I2
as(I15
I21
I20
tp255
(lp256
I2
aI12
as(I11
I25
I13
tp257
(lp258
I18
as(I8
I17
I9
tp259
(lp260
I25
as(I12
I2
I24
tp261
(lp262
I1
aI3
aI23
as(I14
I7
I11
tp263
(lp264
I3
aI16
as(I23
I10
I13
tp265
(lp266
I14
as(I6
I1
I3
tp267
(lp268
I20
as(I1
I16
I10
tp269
(lp270
I9
aI11
aI14
as(I25
I5
I9
tp271
(lp272
I4
aI5
as(I10
I4
I25
tp273
(lp274
I19
aI22
as(I5
I7
I2
tp275
(lp276
I15
aI20
as(I16
I13
I15
tp277
(lp278
I7
as(I9
I21
I22
tp279
(lp280
I15
as(I12
I22
I20
tp281
(lp282
I2
as(I17
I8
I25
tp283
(lp284
I19
aI22
as(I9
I18
I25
tp285
(lp286
I18
aI19
aI22
as(I19
I22
I6
tp287
(lp288
I18
as(I11
I25
I5
tp289
(lp290
I9
as(I24
I20
I2
tp291
(lp292
I20
as(I4
I10
I15
tp293
(lp294
I5
as(I3
I23
I12
tp295
(lp296
I21
aI24
as(I13
I16
I14
tp297
(lp298
I10
aI11
as(I14
I7
I19
tp299
(lp300
I16
as(I18
I9
I19
tp301
(lp302
I8
aI25
as(I5
I25
I17
tp303
(lp304
I18
as(I7
I5
I22
tp305
(lp306
I25
as(I25
I5
I17
tp307
(lp308
I21
as(I10
I23
I2
tp309
(lp310
I21
as(I10
I4
I1
tp311
(lp312
I20
as(I10
I23
I10
tp313
(lp314
I1
aI9
aI11
aI14
as(I20
I24
I1
tp315
(lp316
I10
aI24
as(I25
I11
I10
tp317
(lp318
I1
aI11
aI14
as(I16
I1
I10
tp319
(lp320
I1
aI14
as(I21
I15
I20
tp321
(lp322
I2
aI3
as(I22
I12
I5
tp323
(lp324
I12
as(I4
I19
I4
tp325
(lp326
I2
aI8
aI9
aI22
as(I8
I17
I25
tp327
(lp328
I18
as(I15
I18
I8
tp329
(lp330
I17
as(I3
I23
I20
tp331
(lp332
I1
aI2
aI12
as(I13
I16
I6
tp333
(lp334
I19
as(I16
I13
I16
tp335
(lp336
I5
aI7
aI11
aI19
as(I25
I5
I25
tp337
(lp338
I9
aI18
aI19
aI22
as(I22
I19
I18
tp339
(lp340
I6
as(I10
I4
I9
tp341
(lp342
I4
aI5
aI25
as(I12
I22
I15
tp343
(lp344
I22
as(I22
I12
I8
tp345
(lp346
I17
as(I14
I13
I9
tp347
(lp348
I25
as(I25
I11
I18
tp349
(lp350
I13
as(I1
I6
I23
tp351
(lp352
I6
aI17
as(I11
I20
I5
tp353
(lp354
I12
as(I16
I1
I5
tp355
(lp356
I9
aI12
as(I11
I20
I11
tp357
(lp358
I3
aI10
aI14
aI16
as(I17
I8
I6
tp359
(lp360
I19
as(I21
I15
I12
tp361
(lp362
I5
aI20
as(I10
I23
I18
tp363
(lp364
I17
as(I13
I14
I25
tp365
(lp366
I9
as(I2
I12
I1
tp367
(lp368
I24
as(I9
I18
I10
tp369
(lp370
I14
as(I24
I2
I23
tp371
(lp372
I17
aI21
as(I8
I17
I2
tp373
(lp374
I21
as(I15
I18
I17
tp375
(lp376
I18
as(I2
I24
I2
tp377
(lp378
I15
aI20
aI21
as(I22
I12
I22
tp379
(lp380
I4
aI8
aI15
aI25
as(I10
I4
I16
tp381
(lp382
I5
as(I11
I20
I3
tp383
(lp384
I20
aI24
as(I5
I7
I9
tp385
(lp386
I10
as(I9
I21
I9
tp387
(lp388
I4
aI5
aI25
as(I13
I14
I1
tp389
(lp390
I14
as(I2
I12
I9
tp391
(lp392
I5
as(I7
I14
I13
tp393
(lp394
I14
as(I14
I13
I10
tp395
(lp396
I9
aI11
as(I19
I4
I22
tp397
(lp398
I4
aI8
aI25
as(I15
I18
I25
tp399
(lp400
I18
aI19
as(I4
I19
I22
tp401
(lp402
I8
aI25
as(I4
I10
I22
tp403
(lp404
I15
aI25
as(I3
I23
I7
tp405
(lp406
I13
as(I14
I7
I20
tp407
(lp408
I3
as(I1
I16
I11
tp409
(lp410
I16
as(I20
I11
I24
tp411
(lp412
I3
as(I25
I5
I8
tp413
(lp414
I4
as(I10
I23
I1
tp415
(lp416
I20
aI24
as(I25
I11
I1
tp417
(lp418
I14
as(I9
I21
I17
tp419
(lp420
I21
as(I13
I14
I9
tp421
(lp422
I10
as(I19
I22
I7
tp423
(lp424
I15
as(I1
I6
I7
tp425
(lp426
I13
as(I11
I25
I4
tp427
(lp428
I22
as(I8
I17
I18
tp429
(lp430
I17
as(I2
I24
I21
tp431
(lp432
I12
aI17
aI23
as(I13
I16
I15
tp433
(lp434
I5
as(I3
I6
I14
tp435
(lp436
I13
as(I5
I25
I16
tp437
(lp438
I11
aI19
as(I23
I10
I18
tp439
(lp440
I25
as(I11
I25
I18
tp441
(lp442
I25
as(I1
I16
I3
tp443
(lp444
I11
as(I20
I11
I16
tp445
(lp446
I11
as(I24
I20
I23
tp447
(lp448
I21
as(I10
I23
I3
tp449
(lp450
I24
as(I25
I11
I9
tp451
(lp452
I5
aI10
as(I9
I21
I25
tp453
(lp454
I18
as(I6
I3
I18
tp455
(lp456
I13
as(I1
I6
I24
tp457
(lp458
I3
aI23
as(I19
I22
I15
tp459
(lp460
I22
as(I4
I19
I5
tp461
(lp462
I16
as(I15
I18
I9
tp463
(lp464
I25
as(I16
I1
I14
tp465
(lp466
I1
aI10
as(I13
I16
I7
tp467
(lp468
I3
aI15
aI16
as(I11
I20
I12
tp469
(lp470
I20
as(I23
I3
I2
tp471
(lp472
I15
aI20
as(I10
I23
I11
tp473
(lp474
I3
as(I13
I14
I18
tp475
(lp476
I25
as(I10
I4
I8
tp477
(lp478
I4
as(I7
I14
I2
tp479
(lp480
I20
as(I15
I21
I2
tp481
(lp482
I4
aI20
aI21
as(I24
I2
I5
tp483
(lp484
I15
as(I15
I18
I22
tp485
(lp486
I8
aI25
as(I1
I6
I16
tp487
(lp488
I19
as(I3
I6
I23
tp489
(lp490
I6
aI17
as(I3
I6
I17
tp491
(lp492
I18
as(I5
I25
I11
tp493
(lp494
I10
as(I1
I16
I24
tp495
(lp496
I3
as(I2
I24
I5
tp497
(lp498
I12
as(I3
I6
I1
tp499
(lp500
I14
as(I12
I2
I3
tp501
(lp502
I7
aI20
as(I4
I19
I18
tp503
(lp504
I6
as(I22
I12
I9
tp505
(lp506
I5
as(I16
I13
I25
tp507
(lp508
I18
as(I21
I15
I5
tp509
(lp510
I15
aI16
as(I7
I14
I10
tp511
(lp512
I14
as(I1
I6
I11
tp513
(lp514
I16
as(I21
I9
I10
tp515
(lp516
I9
as(I25
I11
I25
tp517
(lp518
I9
aI18
aI19
as(I11
I25
I19
tp519
(lp520
I8
aI25
as(I6
I3
I2
tp521
(lp522
I20
as(I4
I10
I25
tp523
(lp524
I9
as(I14
I7
I13
tp525
(lp526
I6
aI7
as(I1
I6
I3
tp527
(lp528
I7
as(I23
I10
I3
tp529
(lp530
I11
as(I20
I11
I1
tp531
(lp532
I10
aI14
aI24
as(I18
I15
I4
tp533
(lp534
I2
as(I10
I4
I19
tp535
(lp536
I8
as(I18
I9
I8
tp537
(lp538
I4
as(I20
I24
I23
tp539
(lp540
I24
as(I7
I5
I13
tp541
(lp542
I18
as(I9
I21
I8
tp543
(lp544
I17
as(I14
I13
I11
tp545
(lp546
I3
aI16
as(I9
I18
I19
tp547
(lp548
I6
aI8
aI25
as(I21
I9
I2
tp549
(lp550
I4
aI15
aI20
as(I11
I25
I11
tp551
(lp552
I10
aI14
aI16
as(I24
I20
I24
tp553
(lp554
I1
aI3
aI12
aI23
as(I15
I18
I6
tp555
(lp556
I18
as(I21
I15
I7
tp557
(lp558
I15
as(I3
I23
I6
tp559
(lp560
I23
as(I3
I6
I7
tp561
(lp562
I13
aI16
as(I23
I10
I11
tp563
(lp564
I10
as(I9
I18
I17
tp565
(lp566
I18
as(I23
I3
I13
tp567
(lp568
I7
as(I22
I12
I25
tp569
(lp570
I9
as(I16
I1
I9
tp571
(lp572
I10
as(I13
I14
I10
tp573
(lp574
I14
as(I14
I7
I10
tp575
(lp576
I11
as(I14
I13
I3
tp577
(lp578
I7
as(I19
I22
I4
tp579
(lp580
I22
as(I8
I17
I19
tp581
(lp582
I6
aI25
as(I2
I24
I20
tp583
(lp584
I1
aI3
aI12
as(I4
I10
I9
tp585
(lp586
I5
aI10
as(I18
I9
I17
tp587
(lp588
I8
as(I5
I25
I19
tp589
(lp590
I25
as(I7
I5
I20
tp591
(lp592
I12
as(I25
I5
I19
tp593
(lp594
I8
aI16
as(I12
I22
I9
tp595
(lp596
I4
aI25
as(I5
I7
I24
tp597
(lp598
I3
as(I15
I21
I9
tp599
(lp600
I4
as(I6
I3
I19
tp601
(lp602
I16
as(I2
I12
I24
tp603
(lp604
I12
as(I21
I9
I18
tp605
(lp606
I25
as(I4
I19
I2
tp607
(lp608
I15
as(I20
I11
I14
tp609
(lp610
I10
aI11
as(I18
I15
I21
tp611
(lp612
I2
as(I4
I10
I1
tp613
(lp614
I10
as(I18
I9
I25
tp615
(lp616
I9
aI19
aI22
as(I16
I13
I18
tp617
(lp618
I13
as(I10
I23
I12
tp619
(lp620
I21
as(I10
I4
I11
tp621
(lp622
I16
as(I7
I14
I3
tp623
(lp624
I11
aI20
aI24
as(I5
I7
I16
tp625
(lp626
I7
aI11
as(I9
I18
I4
tp627
(lp628
I8
aI22
as(I11
I25
I10
tp629
(lp630
I9
aI14
as(I25
I11
I16
tp631
(lp632
I7
aI11
as(I6
I3
I11
tp633
(lp634
I3
as(I1
I6
I17
tp635
(lp636
I18
as(I14
I7
I6
tp637
(lp638
I19
as(I5
I25
I10
tp639
(lp640
I9
as(I16
I1
I7
tp641
(lp642
I3
as(I16
I1
I16
tp643
(lp644
I5
aI7
aI11
as(I3
I6
I19
tp645
(lp646
I6
as(I6
I1
I24
tp647
(lp648
I1
aI3
as(I5
I7
I15
tp649
(lp650
I2
aI7
as(I24
I20
I10
tp651
(lp652
I1
aI11
as(I23
I3
I21
tp653
(lp654
I2
aI12
as(I10
I23
I20
tp655
(lp656
I2
as(I2
I12
I3
tp657
(lp658
I20
aI24
as(I7
I14
I11
tp659
(lp660
I10
aI14
as(I12
I22
I25
tp661
(lp662
I22
as(I19
I4
I8
tp663
(lp664
I4
aI17
aI22
as(I21
I9
I5
tp665
(lp666
I9
as(I24
I2
I12
tp667
(lp668
I5
aI20
aI21
as(I8
I17
I4
tp669
(lp670
I2
aI9
as(I6
I1
I21
tp671
(lp672
I2
as(I14
I7
I14
tp673
(lp674
I1
aI10
aI11
aI13
as(I5
I25
I2
tp675
(lp676
I4
as(I6
I1
I14
tp677
(lp678
I1
aI10
aI11
as(I2
I24
I12
tp679
(lp680
I24
as(I25
I5
I2
tp681
(lp682
I15
as(I18
I15
I5
tp683
(lp684
I15
as(I7
I5
I12
tp685
(lp686
I5
as(I25
I11
I7
tp687
(lp688
I3
as(I22
I19
I4
tp689
(lp690
I8
aI9
as(I13
I14
I3
tp691
(lp692
I11
aI20
as(I12
I22
I17
tp693
(lp694
I8
as(I1
I6
I10
tp695
(lp696
I14
as(I19
I4
I16
tp697
(lp698
I5
as(I15
I21
I17
tp699
(lp700
I21
as(I24
I2
I20
tp701
(lp702
I2
as(I15
I18
I7
tp703
(lp704
I13
aI16
as(I12
I2
I21
tp705
(lp706
I2
as(I4
I10
I16
tp707
(lp708
I11
as(I3
I23
I1
tp709
(lp710
I24
as(I21
I15
I8
tp711
(lp712
I22
as(I18
I9
I22
tp713
(lp714
I4
as(I6
I1
I6
tp715
(lp716
I13
aI18
aI23
as(I1
I16
I9
tp717
(lp718
I5
as(I23
I3
I12
tp719
(lp720
I20
aI24
as(I18
I15
I13
tp721
(lp722
I7
as(I7
I14
I16
tp723
(lp724
I11
as(I14
I13
I25
tp725
(lp726
I18
as(I16
I13
I10
tp727
(lp728
I14
as(I13
I14
I11
tp729
(lp730
I10
aI14
as(I21
I15
I9
tp731
(lp732
I5
as(I19
I22
I5
tp733
(lp734
I15
as(I21
I9
I21
tp735
(lp736
I2
aI12
aI17
as(I2
I24
I23
tp737
(lp738
I24
as(I15
I18
I15
tp739
(lp740
I2
aI5
aI7
aI22
as(I4
I10
I8
tp741
(lp742
I19
as(I13
I16
I13
tp743
(lp744
I6
aI7
aI14
aI18
as(I5
I25
I18
tp745
(lp746
I25
as(I7
I5
I19
tp747
(lp748
I25
as(I1
I16
I1
tp749
(lp750
I10
aI14
aI20
aI24
as(I25
I5
I18
tp751
(lp752
I17
as(I10
I4
I2
tp753
(lp754
I4
as(I7
I14
I24
tp755
(lp756
I1
as(I12
I22
I8
tp757
(lp758
I22
as(I15
I21
I8
tp759
(lp760
I17
as(I6
I3
I20
tp761
(lp762
I3
as(I14
I13
I24
tp763
(lp764
I3
as(I12
I2
I5
tp765
(lp766
I9
aI15
as(I18
I15
I22
tp767
(lp768
I4
aI15
as(I3
I23
I17
tp769
(lp770
I23
as(I13
I16
I5
tp771
(lp772
I16
as(I11
I20
I14
tp773
(lp774
I1
aI10
as(I18
I9
I6
tp775
(lp776
I13
aI19
as(I16
I13
I19
tp777
(lp778
I6
aI25
as(I23
I10
I24
tp779
(lp780
I1
aI3
aI12
as(I1
I6
I13
tp781
(lp782
I6
aI18
as(I10
I23
I13
tp783
(lp784
I6
aI18
as(I13
I14
I20
tp785
(lp786
I1
as(I10
I4
I10
tp787
(lp788
I1
aI9
aI11
aI14
as(I21
I9
I12
tp789
(lp790
I5
aI20
as(I24
I2
I7
tp791
(lp792
I15
as(I1
I6
I18
tp793
(lp794
I6
as(I22
I12
I17
tp795
(lp796
I21
as(I5
I25
I5
tp797
(lp798
I9
aI12
aI15
aI16
as(I6
I1
I23
tp799
(lp800
I21
aI24
as(I2
I24
I7
tp801
(lp802
I3
as(I20
I11
I7
tp803
(lp804
I16
as(I18
I9
I14
tp805
(lp806
I10
as(I7
I5
I3
tp807
(lp808
I11
aI20
aI24
as(I23
I3
I20
tp809
(lp810
I3
as(I9
I21
I2
tp811
(lp812
I20
aI21
as(I10
I23
I21
tp813
(lp814
I23
as(I2
I12
I2
tp815
(lp816
I4
aI15
aI20
aI21
as(I19
I4
I9
tp817
(lp818
I4
as(I19
I22
I18
tp819
(lp820
I25
as(I21
I9
I4
tp821
(lp822
I9
aI22
as(I24
I2
I15
tp823
(lp824
I2
as(I23
I10
I1
tp825
(lp826
I10
aI14
as(I2
I24
I15
tp827
(lp828
I5
aI7
as(I10
I23
I14
tp829
(lp830
I1
aI13
as(I18
I15
I6
tp831
(lp832
I13
as(I16
I13
I3
tp833
(lp834
I7
as(I20
I24
I21
tp835
(lp836
I12
aI23
as(I7
I5
I11
tp837
(lp838
I16
as(I25
I11
I6
tp839
(lp840
I13
as(I22
I19
I5
tp841
(lp842
I16
as(I17
I8
I21
tp843
(lp844
I2
as(I19
I4
I17
tp845
(lp846
I21
as(I11
I25
I9
tp847
(lp848
I4
aI25
as(I12
I2
I20
tp849
(lp850
I2
aI3
as(I4
I10
I19
tp851
(lp852
I25
as(I9
I18
I6
tp853
(lp854
I18
as(I5
I25
I21
tp855
(lp856
I17
as(I23
I10
I9
tp857
(lp858
I10
as(I6
I1
I7
tp859
(lp860
I3
as(I1
I16
I14
tp861
(lp862
I10
aI11
as(I23
I3
I15
tp863
(lp864
I7
as(I25
I5
I21
tp865
(lp866
I12
as(I16
I13
I11
tp867
(lp868
I3
aI10
aI14
as(I17
I8
I23
tp869
(lp870
I6
aI21
as(I25
I11
I14
tp871
(lp872
I11
as(I15
I21
I15
tp873
(lp874
I2
aI5
aI22
as(I9
I21
I18
tp875
(lp876
I17
as(I14
I13
I1
tp877
(lp878
I20
aI24
as(I19
I4
I25
tp879
(lp880
I9
aI22
as(I21
I9
I20
tp881
(lp882
I1
as(I8
I17
I21
tp883
(lp884
I17
as(I12
I2
I12
tp885
(lp886
I5
aI20
aI21
aI24
as(I4
I10
I11
tp887
(lp888
I10
as(I13
I16
I10
tp889
(lp890
I11
as(I3
I6
I13
tp891
(lp892
I6
aI18
as(I23
I10
I17
tp893
(lp894
I18
as(I7
I5
I18
tp895
(lp896
I25
as(I23
I3
I7
tp897
(lp898
I3
as(I10
I23
I6
tp899
(lp900
I23
as(I10
I4
I5
tp901
(lp902
I9
aI15
as(I24
I2
I21
tp903
(lp904
I2
as(I6
I3
I21
tp905
(lp906
I2
as(I21
I15
I3
tp907
(lp908
I7
as(I1
I6
I19
tp909
(lp910
I6
as(I5
I25
I12
tp911
(lp912
I21
as(I20
I11
I12
tp913
(lp914
I24
as(I12
I2
I4
tp915
(lp916
I2
as(I22
I12
I2
tp917
(lp918
I20
aI21
as(I4
I10
I3
tp919
(lp920
I11
as(I23
I10
I25
tp921
(lp922
I9
as(I9
I21
I5
tp923
(lp924
I12
aI15
as(I22
I19
I22
tp925
(lp926
I4
aI8
aI15
aI25
as(I7
I14
I1
tp927
(lp928
I14
as(I19
I4
I2
tp929
(lp930
I4
as(I21
I9
I15
tp931
(lp932
I5
as(I6
I3
I13
tp933
(lp934
I7
aI14
as(I15
I18
I21
tp935
(lp936
I17
as(I4
I19
I8
tp937
(lp938
I19
aI22
as(I17
I8
I13
tp939
(lp940
I6
as(I3
I6
I18
tp941
(lp942
I6
as(I5
I25
I4
tp943
(lp944
I9
aI22
as(I23
I10
I6
tp945
(lp946
I13
aI18
as(I6
I1
I20
tp947
(lp948
I1
as(I25
I5
I4
tp949
(lp950
I2
aI9
as(I3
I23
I24
tp951
(lp952
I12
aI23
as(I23
I3
I23
tp953
(lp954
I6
aI21
aI24
as(I2
I12
I5
tp955
(lp956
I12
as(I17
I8
I18
tp957
(lp958
I6
aI13
aI25
as(I9
I18
I14
tp959
(lp960
I13
as(I19
I22
I19
tp961
(lp962
I6
aI8
aI16
aI25
as(I11
I25
I16
tp963
(lp964
I5
aI19
as(I8
I17
I6
tp965
(lp966
I18
aI23
as(I14
I13
I19
tp967
(lp968
I6
as(I4
I19
I16
tp969
(lp970
I19
as(I25
I5
I12
tp971
(lp972
I5
as(I18
I15
I7
tp973
(lp974
I15
aI16
as(I10
I4
I20
tp975
(lp976
I2
as(I13
I16
I18
tp977
(lp978
I6
aI25
as(I5
I7
I5
tp979
(lp980
I9
aI12
aI15
aI16
as(I17
I8
I4
tp981
(lp982
I8
as(I20
I24
I20
tp983
(lp984
I1
aI2
aI3
aI12
as(I25
I11
I5
tp985
(lp986
I16
as(I22
I19
I6
tp987
(lp988
I19
as(I21
I15
I2
tp989
(lp990
I4
aI15
aI20
as(I14
I13
I6
tp991
(lp992
I13
as(I9
I18
I22
tp993
(lp994
I8
aI25
as(I11
I25
I8
tp995
(lp996
I22
as(I15
I18
I5
tp997
(lp998
I9
as(I12
I2
I23
tp999
(lp1000
I21
as(I3
I23
I3
tp1001
(lp1002
I7
aI20
aI24
as(I14
I7
I16
tp1003
(lp1004
I7
as(I14
I13
I18
tp1005
(lp1006
I13
as(I20
I11
I20
tp1007
(lp1008
I1
aI3
aI12
as(I20
I24
I12
tp1009
(lp1010
I21
aI24
as(I25
I11
I13
tp1011
(lp1012
I14
as(I13
I14
I13
tp1013
(lp1014
I6
aI7
aI14
aI18
as(I2
I12
I21
tp1015
(lp1016
I12
aI23
as(I17
I8
I2
tp1017
(lp1018
I4
as(I8
I17
I22
tp1019
(lp1020
I4
aI25
as(I2
I24
I17
tp1021
(lp1022
I23
as(I15
I18
I13
tp1023
(lp1024
I6
aI18
as(I12
I2
I15
tp1025
(lp1026
I2
as(I18
I15
I16
tp1027
(lp1028
I5
as(I13
I16
I11
tp1029
(lp1030
I16
as(I14
I7
I24
tp1031
(lp1032
I3
as(I14
I13
I14
tp1033
(lp1034
I1
aI10
aI11
aI13
as(I23
I3
I6
tp1035
(lp1036
I13
as(I24
I2
I1
tp1037
(lp1038
I20
as(I1
I6
I20
tp1039
(lp1040
I3
as(I1
I6
I1
tp1041
(lp1042
I10
aI14
aI20
aI24
as(I5
I25
I15
tp1043
(lp1044
I2
aI22
as(I12
I2
I7
tp1045
(lp1046
I15
as(I4
I10
I2
tp1047
(lp1048
I15
aI20
as(I13
I16
I3
tp1049
(lp1050
I11
as(I18
I9
I4
tp1051
(lp1052
I9
as(I7
I5
I25
tp1053
(lp1054
I9
as(I9
I21
I4
tp1055
(lp1056
I2
aI8
aI22
as(I12
I22
I2
tp1057
(lp1058
I4
aI15
as(I6
I3
I14
tp1059
(lp1060
I11
as(I24
I20
I1
tp1061
(lp1062
I10
aI20
as(I14
I7
I1
tp1063
(lp1064
I20
aI24
as(I4
I19
I9
tp1065
(lp1066
I5
aI25
as(I2
I24
I1
tp1067
(lp1068
I24
as(I25
I5
I7
tp1069
(lp1070
I15
as(I22
I12
I21
tp1071
(lp1072
I12
as(I5
I7
I12
tp1073
(lp1074
I20
aI24
as(I16
I13
I5
tp1075
(lp1076
I15
as(I9
I21
I12
tp1077
(lp1078
I20
aI21
as(I22
I19
I15
tp1079
(lp1080
I5
aI7
as(I2
I12
I4
tp1081
(lp1082
I9
as(I17
I8
I19
tp1083
(lp1084
I8
as(I19
I22
I16
tp1085
(lp1086
I5
aI7
as(I15
I21
I22
tp1087
(lp1088
I4
aI8
as(I24
I2
I17
tp1089
(lp1090
I21
as(I6
I3
I6
tp1091
(lp1092
I13
aI18
aI19
aI23
as(I23
I10
I14
tp1093
(lp1094
I1
aI10
as(I6
I1
I13
tp1095
(lp1096
I7
aI14
as(I1
I16
I20
tp1097
(lp1098
I3
aI12
as(I25
I5
I15
tp1099
(lp1100
I5
as(I18
I15
I8
tp1101
(lp1102
I22
as(I13
I16
I19
tp1103
(lp1104
I16
as(I11
I20
I24
tp1105
(lp1106
I1
aI12
as(I20
I24
I11
tp1107
(lp1108
I3
aI10
as(I7
I5
I9
tp1109
(lp1110
I5
as(I17
I8
I22
tp1111
(lp1112
I8
as(I9
I21
I20
tp1113
(lp1114
I2
aI12
as(I22
I19
I7
tp1115
(lp1116
I16
as(I13
I14
I6
tp1117
(lp1118
I23
as(I14
I13
I7
tp1119
(lp1120
I13
as(I19
I4
I19
tp1121
(lp1122
I8
aI16
aI25
as(I15
I18
I2
tp1123
(lp1124
I21
as(I3
I23
I2
tp1125
(lp1126
I21
as(I3
I6
I3
tp1127
(lp1128
I7
aI11
aI24
as(I21
I15
I22
tp1129
(lp1130
I15
as(I23
I10
I23
tp1131
(lp1132
I6
aI17
aI24
as(I4
I19
I25
tp1133
(lp1134
I18
aI19
as(I1
I16
I12
tp1135
(lp1136
I5
as(I11
I20
I16
tp1137
(lp1138
I5
as(I20
I24
I3
tp1139
(lp1140
I11
aI24
as(I2
I12
I20
tp1141
(lp1142
I1
aI3
aI12
as(I14
I13
I16
tp1143
(lp1144
I7
aI19
as(I21
I9
I22
tp1145
(lp1146
I25
as.