(dp0
(I15
I20
I2
tp1
(lp2
I3
as(I17
I24
I21
tp3
(lp4
I3
as(I4
I25
I18
tp5
(lp6
I13
as(I18
I5
I6
tp7
(lp8
I19
as(I21
I10
I7
tp9
(lp10
I1
aI11
as(I4
I25
I6
tp11
(lp12
I19
as(I13
I16
I2
tp13
(lp14
I5
as(I14
I4
I3
tp15
(lp16
I20
as(I19
I17
I15
tp17
(lp18
I17
as(I16
I13
I22
tp19
(lp20
I14
as(I8
I19
I18
tp21
(lp22
I13
as(I15
I2
I24
tp23
(lp24
I3
as(I3
I16
I21
tp25
(lp26
I23
as(I16
I3
I22
tp27
(lp28
I24
as(I13
I3
I24
tp29
(lp30
I3
as(I19
I8
I25
tp31
(lp32
I24
as(I14
I6
I13
tp33
(lp34
I19
as(I3
I22
I25
tp35
(lp36
I19
as(I20
I18
I3
tp37
(lp38
I24
as(I2
I15
I13
tp39
(lp40
I18
as(I10
I15
I17
tp41
(lp42
I15
as(I25
I16
I5
tp43
(lp44
I16
aI19
as(I20
I22
I20
tp45
(lp46
I3
aI4
aI8
aI17
as(I13
I2
I15
tp47
(lp48
I11
as(I11
I2
I16
tp49
(lp50
I5
as(I10
I21
I3
tp51
(lp52
I21
as(I12
I10
I13
tp53
(lp54
I10
as(I17
I24
I17
tp55
(lp56
I4
aI15
aI20
aI23
as(I25
I12
I8
tp57
(lp58
I12
as(I21
I3
I14
tp59
(lp60
I2
aI22
as(I7
I23
I11
tp61
(lp62
I2
aI15
as(I22
I14
I19
tp63
(lp64
I5
aI13
as(I23
I9
I4
tp65
(lp66
I8
aI9
as(I6
I14
I6
tp67
(lp68
I12
aI16
aI19
aI22
as(I21
I3
I11
tp69
(lp70
I2
as(I24
I12
I19
tp71
(lp72
I6
as(I10
I21
I2
tp73
(lp74
I3
aI11
as(I3
I22
I6
tp75
(lp76
I22
as(I21
I10
I3
tp77
(lp78
I2
aI24
as(I11
I20
I9
tp79
(lp80
I4
as(I11
I21
I23
tp81
(lp82
I21
as(I4
I8
I18
tp83
(lp84
I1
as(I22
I20
I23
tp85
(lp86
I17
aI21
as(I22
I3
I14
tp87
(lp88
I2
aI10
aI13
as(I4
I14
I22
tp89
(lp90
I14
as(I1
I11
I2
tp91
(lp92
I11
as(I15
I10
I12
tp93
(lp94
I1
as(I21
I3
I25
tp95
(lp96
I24
as(I16
I13
I5
tp97
(lp98
I2
aI19
aI25
as(I21
I6
I7
tp99
(lp100
I1
aI11
aI25
as(I13
I15
I17
tp101
(lp102
I15
as(I2
I15
I21
tp103
(lp104
I23
as(I23
I7
I10
tp105
(lp106
I1
as(I20
I15
I16
tp107
(lp108
I15
as(I18
I5
I11
tp109
(lp110
I2
as(I9
I18
I8
tp111
(lp112
I4
aI12
aI20
as(I9
I1
I7
tp113
(lp114
I1
as(I4
I5
I20
tp115
(lp116
I3
aI17
as(I21
I10
I23
tp117
(lp118
I22
as(I12
I25
I22
tp119
(lp120
I24
as(I10
I21
I11
tp121
(lp122
I7
as(I24
I19
I5
tp123
(lp124
I16
aI19
as(I5
I4
I23
tp125
(lp126
I17
as(I7
I23
I3
tp127
(lp128
I20
aI21
as(I25
I4
I16
tp129
(lp130
I15
as(I14
I4
I22
tp131
(lp132
I6
aI23
aI24
as(I10
I25
I19
tp133
(lp134
I5
aI25
as(I25
I4
I25
tp135
(lp136
I5
aI7
aI24
as(I17
I7
I17
tp137
(lp138
I15
aI20
aI23
as(I6
I1
I10
tp139
(lp140
I1
as(I8
I4
I20
tp141
(lp142
I3
aI4
aI17
as(I6
I14
I23
tp143
(lp144
I22
as(I20
I11
I2
tp145
(lp146
I11
as(I9
I23
I18
tp147
(lp148
I15
as(I3
I22
I14
tp149
(lp150
I22
as(I11
I1
I12
tp151
(lp152
I1
aI8
as(I18
I9
I13
tp153
(lp154
I19
as(I16
I13
I6
tp155
(lp156
I19
aI22
as(I15
I13
I16
tp157
(lp158
I5
aI6
as(I22
I3
I5
tp159
(lp160
I2
as(I16
I3
I6
tp161
(lp162
I22
as(I12
I24
I9
tp163
(lp164
I24
as(I16
I9
I17
tp165
(lp166
I4
as(I12
I22
I19
tp167
(lp168
I25
as(I13
I15
I21
tp169
(lp170
I23
as(I23
I7
I2
tp171
(lp172
I11
as(I1
I6
I14
tp173
(lp174
I22
as(I10
I15
I1
tp175
(lp176
I7
aI12
aI18
as(I4
I8
I11
tp177
(lp178
I12
as(I9
I1
I15
tp179
(lp180
I11
as(I20
I22
I4
tp181
(lp182
I9
aI17
as(I25
I4
I15
tp183
(lp184
I17
as(I2
I1
I13
tp185
(lp186
I10
aI18
as(I16
I9
I1
tp187
(lp188
I18
as(I3
I13
I19
tp189
(lp190
I13
as(I24
I19
I13
tp191
(lp192
I19
as(I25
I12
I24
tp193
(lp194
I9
aI22
as(I6
I21
I10
tp195
(lp196
I21
as(I8
I23
I20
tp197
(lp198
I3
aI4
aI17
as(I11
I21
I14
tp199
(lp200
I10
as(I6
I14
I19
tp201
(lp202
I5
aI13
as(I8
I19
I3
tp203
(lp204
I24
as(I15
I2
I9
tp205
(lp206
I24
as(I3
I16
I6
tp207
(lp208
I16
as(I25
I4
I22
tp209
(lp210
I23
as(I19
I8
I10
tp211
(lp212
I1
as(I5
I18
I14
tp213
(lp214
I13
as(I24
I17
I23
tp215
(lp216
I17
as(I21
I3
I7
tp217
(lp218
I11
aI25
as(I20
I15
I9
tp219
(lp220
I18
as(I16
I13
I14
tp221
(lp222
I13
as(I17
I19
I25
tp223
(lp224
I19
as(I5
I18
I12
tp225
(lp226
I1
as(I24
I12
I6
tp227
(lp228
I12
as(I14
I22
I23
tp229
(lp230
I22
as(I21
I11
I16
tp231
(lp232
I15
as(I16
I9
I25
tp233
(lp234
I24
as(I24
I19
I18
tp235
(lp236
I13
as(I21
I6
I23
tp237
(lp238
I16
aI22
as(I5
I6
I12
tp239
(lp240
I6
as(I10
I12
I19
tp241
(lp242
I6
as(I22
I14
I2
tp243
(lp244
I14
as(I9
I18
I24
tp245
(lp246
I25
as(I1
I9
I7
tp247
(lp248
I25
as(I20
I22
I12
tp249
(lp250
I6
as(I4
I5
I4
tp251
(lp252
I9
aI17
aI20
as(I2
I1
I5
tp253
(lp254
I25
as(I5
I18
I19
tp255
(lp256
I6
aI13
as(I25
I12
I16
tp257
(lp258
I6
as(I18
I5
I15
tp259
(lp260
I11
aI16
as(I17
I14
I23
tp261
(lp262
I16
aI21
aI22
as(I9
I16
I19
tp263
(lp264
I5
as(I17
I24
I15
tp265
(lp266
I18
as(I2
I11
I12
tp267
(lp268
I11
as(I18
I9
I18
tp269
(lp270
I1
aI9
aI13
aI15
as(I14
I6
I12
tp271
(lp272
I6
as(I12
I22
I9
tp273
(lp274
I24
as(I15
I2
I17
tp275
(lp276
I4
aI20
as(I7
I17
I24
tp277
(lp278
I3
as(I19
I8
I2
tp279
(lp280
I11
as(I13
I15
I1
tp281
(lp282
I12
aI18
as(I22
I3
I21
tp283
(lp284
I3
as(I11
I20
I17
tp285
(lp286
I4
aI20
as(I22
I3
I2
tp287
(lp288
I3
as(I8
I19
I5
tp289
(lp290
I19
as(I2
I11
I1
tp291
(lp292
I12
as(I12
I25
I7
tp293
(lp294
I25
as(I12
I24
I25
tp295
(lp296
I24
as(I23
I9
I18
tp297
(lp298
I9
as(I16
I9
I8
tp299
(lp300
I9
as(I10
I12
I11
tp301
(lp302
I12
as(I22
I14
I10
tp303
(lp304
I14
as(I3
I21
I20
tp305
(lp306
I17
as(I1
I9
I15
tp307
(lp308
I17
aI18
as(I16
I13
I25
tp309
(lp310
I19
as(I4
I5
I25
tp311
(lp312
I5
aI19
as(I21
I3
I2
tp313
(lp314
I3
as(I3
I13
I3
tp315
(lp316
I2
aI21
aI24
as(I5
I4
I15
tp317
(lp318
I17
aI18
as(I17
I24
I22
tp319
(lp320
I24
as(I11
I1
I21
tp321
(lp322
I10
as(I8
I7
I12
tp323
(lp324
I1
aI6
aI11
as(I19
I24
I8
tp325
(lp326
I9
as(I14
I4
I2
tp327
(lp328
I3
as(I15
I13
I19
tp329
(lp330
I13
as(I16
I13
I23
tp331
(lp332
I21
aI22
as(I17
I7
I21
tp333
(lp334
I7
aI10
as(I4
I14
I17
tp335
(lp336
I23
as(I8
I4
I12
tp337
(lp338
I11
as(I3
I16
I22
tp339
(lp340
I6
aI23
as(I16
I3
I23
tp341
(lp342
I17
aI21
aI22
as(I14
I17
I22
tp343
(lp344
I23
aI24
as(I7
I17
I16
tp345
(lp346
I15
aI23
as(I22
I3
I6
tp347
(lp348
I12
as(I8
I23
I4
tp349
(lp350
I17
aI20
as(I11
I1
I8
tp351
(lp352
I9
as(I2
I15
I14
tp353
(lp354
I13
as(I12
I22
I12
tp355
(lp356
I1
aI6
aI8
aI11
as(I1
I11
I6
tp357
(lp358
I16
as(I10
I15
I18
tp359
(lp360
I15
as(I9
I18
I1
tp361
(lp362
I18
as(I20
I22
I23
tp363
(lp364
I22
as(I24
I12
I22
tp365
(lp366
I6
as(I21
I10
I24
tp367
(lp368
I22
as(I11
I2
I17
tp369
(lp370
I20
as(I23
I8
I6
tp371
(lp372
I12
as(I12
I10
I12
tp373
(lp374
I1
aI6
aI11
as(I24
I19
I2
tp375
(lp376
I5
as(I2
I13
I5
tp377
(lp378
I19
aI25
as(I7
I23
I10
tp379
(lp380
I21
as(I1
I6
I22
tp381
(lp382
I6
as(I13
I3
I19
tp383
(lp384
I5
aI25
as(I10
I25
I24
tp385
(lp386
I25
as(I2
I1
I21
tp387
(lp388
I10
as(I1
I2
I1
tp389
(lp390
I7
aI10
aI12
aI18
as(I9
I23
I9
tp391
(lp392
I4
aI8
aI18
aI24
as(I23
I9
I23
tp393
(lp394
I16
aI17
aI21
aI22
as(I22
I20
I22
tp395
(lp396
I6
aI14
aI23
aI24
as(I10
I25
I2
tp397
(lp398
I5
as(I4
I14
I9
tp399
(lp400
I18
aI24
as(I18
I5
I13
tp401
(lp402
I14
aI19
as(I1
I11
I1
tp403
(lp404
I7
aI10
aI12
aI18
as(I16
I3
I15
tp405
(lp406
I11
aI17
as(I21
I11
I7
tp407
(lp408
I1
aI11
as(I15
I10
I13
tp409
(lp410
I10
aI14
as(I19
I8
I18
tp411
(lp412
I1
aI9
as(I12
I24
I8
tp413
(lp414
I4
aI9
aI20
as(I6
I1
I18
tp415
(lp416
I1
as(I20
I15
I17
tp417
(lp418
I15
aI23
as(I10
I15
I10
tp419
(lp420
I1
aI13
aI14
aI21
as(I9
I18
I9
tp421
(lp422
I4
aI8
aI18
aI24
as(I3
I21
I3
tp423
(lp424
I2
aI20
aI21
aI24
as(I25
I10
I13
tp425
(lp426
I10
aI14
as(I25
I12
I1
tp427
(lp428
I12
as(I5
I4
I20
tp429
(lp430
I4
as(I7
I23
I2
tp431
(lp432
I3
as(I16
I13
I15
tp433
(lp434
I18
as(I14
I6
I19
tp435
(lp436
I6
as(I6
I14
I13
tp437
(lp438
I10
aI14
as(I8
I7
I18
tp439
(lp440
I1
as(I1
I2
I25
tp441
(lp442
I5
as(I15
I2
I14
tp443
(lp444
I2
as(I12
I22
I8
tp445
(lp446
I9
as(I20
I11
I3
tp447
(lp448
I2
aI21
as(I7
I17
I15
tp449
(lp450
I16
aI17
as(I17
I14
I15
tp451
(lp452
I11
aI18
as(I9
I23
I17
tp453
(lp454
I23
as(I14
I4
I18
tp455
(lp456
I9
aI15
as(I11
I20
I2
tp457
(lp458
I3
as(I22
I20
I14
tp459
(lp460
I2
as(I25
I16
I19
tp461
(lp462
I5
aI6
as(I4
I14
I1
tp463
(lp464
I10
as(I22
I3
I20
tp465
(lp466
I3
as(I16
I9
I18
tp467
(lp468
I9
as(I21
I6
I16
tp469
(lp470
I6
as(I13
I2
I11
tp471
(lp472
I2
as(I5
I6
I5
tp473
(lp474
I2
aI16
aI19
aI25
as(I23
I7
I5
tp475
(lp476
I2
aI25
as(I1
I6
I15
tp477
(lp478
I16
as(I10
I15
I2
tp479
(lp480
I11
as(I9
I18
I17
tp481
(lp482
I15
as(I3
I21
I11
tp483
(lp484
I7
as(I9
I1
I14
tp485
(lp486
I10
as(I12
I22
I3
tp487
(lp488
I24
as(I25
I10
I5
tp489
(lp490
I2
aI19
as(I2
I1
I10
tp491
(lp492
I1
as(I11
I2
I1
tp493
(lp494
I10
as(I23
I8
I22
tp495
(lp496
I6
aI24
as(I3
I13
I18
tp497
(lp498
I13
as(I18
I20
I9
tp499
(lp500
I4
aI8
aI24
as(I2
I13
I21
tp501
(lp502
I10
as(I6
I21
I11
tp503
(lp504
I7
as(I8
I23
I21
tp505
(lp506
I23
as(I9
I16
I8
tp507
(lp508
I12
as(I19
I24
I25
tp509
(lp510
I5
aI24
as(I8
I4
I3
tp511
(lp512
I20
aI24
as(I13
I15
I11
tp513
(lp514
I15
as(I7
I17
I7
tp515
(lp516
I1
aI11
aI21
aI25
as(I19
I8
I11
tp517
(lp518
I12
as(I11
I1
I13
tp519
(lp520
I10
as(I3
I22
I23
tp521
(lp522
I16
aI22
as(I24
I17
I24
tp523
(lp524
I3
aI9
aI22
as(I22
I20
I6
tp525
(lp526
I12
as(I5
I18
I13
tp527
(lp528
I18
as(I13
I2
I25
tp529
(lp530
I5
as(I14
I17
I14
tp531
(lp532
I2
aI10
aI13
aI22
as(I21
I6
I24
tp533
(lp534
I22
as(I18
I20
I24
tp535
(lp536
I3
as(I5
I6
I13
tp537
(lp538
I14
as(I10
I12
I18
tp539
(lp540
I1
as(I4
I25
I9
tp541
(lp542
I18
aI24
as(I9
I18
I25
tp543
(lp544
I7
as(I25
I12
I25
tp545
(lp546
I5
aI7
aI19
aI24
as(I2
I1
I2
tp547
(lp548
I3
aI5
aI11
aI14
as(I10
I21
I24
tp549
(lp550
I3
as(I3
I13
I10
tp551
(lp552
I13
aI14
as(I18
I20
I1
tp553
(lp554
I12
as(I7
I8
I11
tp555
(lp556
I12
aI15
as(I6
I21
I3
tp557
(lp558
I21
as(I17
I14
I16
tp559
(lp560
I5
as(I5
I18
I1
tp561
(lp562
I18
as(I12
I24
I1
tp563
(lp564
I7
aI18
as(I1
I6
I19
tp565
(lp566
I6
as(I18
I9
I19
tp567
(lp568
I25
as(I6
I14
I10
tp569
(lp570
I14
as(I8
I19
I8
tp571
(lp572
I9
aI12
aI20
as(I4
I14
I24
tp573
(lp574
I22
as(I8
I4
I11
tp575
(lp576
I15
as(I3
I16
I15
tp577
(lp578
I16
as(I6
I5
I6
tp579
(lp580
I12
aI16
aI19
aI22
as(I22
I12
I24
tp581
(lp582
I9
as(I2
I15
I7
tp583
(lp584
I11
as(I13
I15
I16
tp585
(lp586
I15
as(I9
I1
I25
tp587
(lp588
I7
as(I18
I5
I1
tp589
(lp590
I7
as(I21
I10
I1
tp591
(lp592
I10
aI18
as(I22
I3
I12
tp593
(lp594
I11
as(I15
I10
I21
tp595
(lp596
I10
as(I12
I10
I7
tp597
(lp598
I1
aI21
as(I2
I13
I2
tp599
(lp600
I3
aI5
aI11
aI14
as(I12
I24
I12
tp601
(lp602
I1
aI6
aI8
aI11
as(I23
I7
I21
tp603
(lp604
I3
aI7
aI10
as(I10
I12
I10
tp605
(lp606
I1
aI13
aI14
aI21
as(I16
I9
I22
tp607
(lp608
I24
as(I1
I9
I14
tp609
(lp610
I13
as(I4
I5
I13
tp611
(lp612
I19
as(I15
I20
I4
tp613
(lp614
I8
aI20
as(I1
I2
I10
tp615
(lp616
I13
aI14
as(I3
I13
I2
tp617
(lp618
I5
aI14
as(I15
I20
I12
tp619
(lp620
I8
as(I17
I19
I22
tp621
(lp622
I6
as(I17
I24
I23
tp623
(lp624
I21
aI22
as(I12
I22
I11
tp625
(lp626
I2
aI15
as(I22
I12
I6
tp627
(lp628
I12
aI16
as(I9
I16
I24
tp629
(lp630
I22
aI25
as(I19
I24
I9
tp631
(lp632
I24
as(I14
I4
I13
tp633
(lp634
I18
as(I16
I13
I16
tp635
(lp636
I5
aI6
aI15
aI23
as(I22
I3
I13
tp637
(lp638
I10
as(I8
I19
I16
tp639
(lp640
I5
as(I15
I13
I14
tp641
(lp642
I13
as(I3
I16
I23
tp643
(lp644
I16
as(I16
I3
I20
tp645
(lp646
I3
as(I14
I17
I23
tp647
(lp648
I16
aI17
as(I7
I17
I23
tp649
(lp650
I16
aI17
as(I12
I22
I16
tp651
(lp652
I6
aI23
as(I21
I6
I1
tp653
(lp654
I12
as(I13
I15
I23
tp655
(lp656
I17
as(I23
I9
I16
tp657
(lp658
I15
as(I2
I11
I15
tp659
(lp660
I11
as(I2
I11
I20
tp661
(lp662
I8
as(I8
I7
I20
tp663
(lp664
I3
aI17
as(I25
I16
I11
tp665
(lp666
I15
as(I1
I6
I11
tp667
(lp668
I12
aI15
as(I14
I22
I6
tp669
(lp670
I22
as(I12
I25
I8
tp671
(lp672
I9
as(I7
I8
I21
tp673
(lp674
I3
aI10
as(I24
I19
I3
tp675
(lp676
I2
as(I2
I13
I10
tp677
(lp678
I1
aI13
as(I22
I12
I15
tp679
(lp680
I11
as(I10
I12
I2
tp681
(lp682
I11
as(I11
I2
I8
tp683
(lp684
I20
as(I17
I19
I16
tp685
(lp686
I5
aI6
as(I2
I1
I18
tp687
(lp688
I1
as(I17
I7
I18
tp689
(lp690
I1
as(I6
I1
I16
tp691
(lp692
I15
as(I8
I4
I18
tp693
(lp694
I15
as(I18
I20
I17
tp695
(lp696
I4
aI20
as(I6
I14
I16
tp697
(lp698
I5
aI23
as(I20
I11
I8
tp699
(lp700
I4
aI12
as(I6
I21
I19
tp701
(lp702
I25
as(I4
I25
I24
tp703
(lp704
I25
as(I9
I23
I8
tp705
(lp706
I4
aI20
as(I11
I20
I11
tp707
(lp708
I2
aI7
aI12
aI15
as(I24
I17
I8
tp709
(lp710
I20
as(I22
I20
I17
tp711
(lp712
I4
aI20
as(I8
I19
I24
tp713
(lp714
I22
aI25
as(I7
I8
I3
tp715
(lp716
I20
as(I13
I3
I22
tp717
(lp718
I24
as(I12
I24
I7
tp719
(lp720
I25
as(I19
I8
I19
tp721
(lp722
I5
aI6
aI13
aI25
as(I13
I3
I25
tp723
(lp724
I24
as(I2
I15
I23
tp725
(lp726
I17
as(I7
I8
I25
tp727
(lp728
I24
as(I10
I15
I11
tp729
(lp730
I15
as(I4
I8
I17
tp731
(lp732
I15
aI20
as(I3
I21
I2
tp733
(lp734
I5
aI11
aI14
as(I9
I1
I9
tp735
(lp736
I4
aI8
aI18
aI24
as(I25
I10
I14
tp737
(lp738
I10
as(I14
I22
I14
tp739
(lp740
I2
aI10
aI13
aI22
as(I12
I25
I16
tp741
(lp742
I5
as(I9
I16
I17
tp743
(lp744
I15
aI23
as(I3
I13
I25
tp745
(lp746
I19
as(I8
I23
I12
tp747
(lp748
I6
as(I2
I13
I18
tp749
(lp750
I13
as(I16
I9
I23
tp751
(lp752
I17
aI22
as(I7
I23
I5
tp753
(lp754
I16
as(I22
I14
I25
tp755
(lp756
I5
as(I6
I1
I25
tp757
(lp758
I7
as(I7
I8
I15
tp759
(lp760
I17
as(I22
I3
I11
tp761
(lp762
I2
as(I21
I3
I17
tp763
(lp764
I20
as(I15
I2
I15
tp765
(lp766
I11
aI16
aI17
aI18
as(I17
I19
I24
tp767
(lp768
I25
as(I21
I11
I15
tp769
(lp770
I11
as(I9
I23
I16
tp771
(lp772
I23
as(I20
I18
I20
tp773
(lp774
I3
aI4
aI8
aI17
as(I13
I16
I22
tp775
(lp776
I6
aI23
as(I11
I20
I3
tp777
(lp778
I20
as(I18
I9
I11
tp779
(lp780
I12
as(I22
I20
I9
tp781
(lp782
I4
aI8
as(I5
I18
I6
tp783
(lp784
I12
as(I19
I17
I6
tp785
(lp786
I16
aI22
as(I13
I3
I14
tp787
(lp788
I2
aI10
aI22
as(I15
I10
I2
tp789
(lp790
I14
as(I12
I10
I22
tp791
(lp792
I14
as(I21
I10
I18
tp793
(lp794
I13
as(I22
I12
I22
tp795
(lp796
I6
aI14
aI23
aI24
as(I13
I16
I13
tp797
(lp798
I10
aI14
aI18
aI19
as(I4
I8
I9
tp799
(lp800
I8
aI18
aI24
as(I3
I21
I10
tp801
(lp802
I21
as(I10
I25
I14
tp803
(lp804
I2
aI13
aI22
as(I20
I22
I6
tp805
(lp806
I22
as(I2
I1
I11
tp807
(lp808
I7
aI12
aI15
as(I12
I25
I24
tp809
(lp810
I25
as(I23
I8
I23
tp811
(lp812
I16
aI17
aI22
as(I18
I20
I8
tp813
(lp814
I4
aI20
as(I25
I12
I22
tp815
(lp816
I6
as(I17
I24
I4
tp817
(lp818
I9
aI20
as(I17
I19
I6
tp819
(lp820
I19
as(I24
I17
I9
tp821
(lp822
I4
aI8
aI18
as(I9
I16
I9
tp823
(lp824
I4
aI8
aI18
aI24
as(I12
I22
I10
tp825
(lp826
I14
as(I2
I11
I3
tp827
(lp828
I20
aI21
as(I1
I6
I18
tp829
(lp830
I13
aI15
as(I8
I19
I1
tp831
(lp832
I7
as(I1
I2
I18
tp833
(lp834
I13
aI15
as(I15
I2
I23
tp835
(lp836
I21
as(I19
I8
I12
tp837
(lp838
I8
as(I9
I23
I24
tp839
(lp840
I3
aI22
as(I3
I22
I20
tp841
(lp842
I17
as(I13
I15
I6
tp843
(lp844
I16
as(I17
I7
I12
tp845
(lp846
I1
as(I25
I16
I24
tp847
(lp848
I22
as(I24
I12
I4
tp849
(lp850
I8
as(I14
I22
I21
tp851
(lp852
I3
aI23
as(I14
I17
I15
tp853
(lp854
I17
as(I23
I9
I8
tp855
(lp856
I9
as(I24
I19
I16
tp857
(lp858
I5
aI6
as(I21
I6
I25
tp859
(lp860
I19
as(I23
I9
I20
tp861
(lp862
I4
aI8
as(I5
I6
I14
tp863
(lp864
I22
as(I2
I11
I16
tp865
(lp866
I6
aI15
as(I10
I12
I21
tp867
(lp868
I7
as(I11
I1
I6
tp869
(lp870
I12
as(I4
I8
I1
tp871
(lp872
I12
as(I14
I6
I11
tp873
(lp874
I12
as(I20
I22
I14
tp875
(lp876
I22
as(I2
I1
I3
tp877
(lp878
I21
as(I7
I8
I17
tp879
(lp880
I20
as(I5
I18
I5
tp881
(lp882
I2
aI16
aI19
aI25
as(I21
I11
I12
tp883
(lp884
I11
as(I5
I4
I5
tp885
(lp886
I2
aI16
aI25
as(I17
I14
I17
tp887
(lp888
I15
aI20
aI23
as(I7
I23
I21
tp889
(lp890
I3
aI23
as(I8
I7
I15
tp891
(lp892
I11
as(I19
I24
I18
tp893
(lp894
I9
as(I13
I16
I15
tp895
(lp896
I16
as(I8
I19
I9
tp897
(lp898
I18
aI24
as(I15
I13
I5
tp899
(lp900
I19
aI25
as(I1
I11
I15
tp901
(lp902
I11
as(I17
I19
I17
tp903
(lp904
I15
aI20
aI23
as(I19
I8
I4
tp905
(lp906
I8
as(I13
I15
I2
tp907
(lp908
I11
as(I20
I18
I4
tp909
(lp910
I8
aI9
aI17
as(I1
I11
I7
tp911
(lp912
I11
aI21
as(I25
I4
I11
tp913
(lp914
I15
as(I6
I1
I11
tp915
(lp916
I7
as(I9
I1
I24
tp917
(lp918
I25
as(I20
I22
I17
tp919
(lp920
I23
as(I13
I2
I18
tp921
(lp922
I15
as(I12
I25
I1
tp923
(lp924
I7
as(I15
I10
I18
tp925
(lp926
I1
aI13
as(I12
I10
I6
tp927
(lp928
I19
aI22
as(I24
I19
I24
tp929
(lp930
I3
aI9
aI22
aI25
as(I2
I13
I3
tp931
(lp932
I21
as(I10
I12
I13
tp933
(lp934
I18
aI19
as(I1
I9
I17
tp935
(lp936
I4
as(I25
I10
I22
tp937
(lp938
I14
as(I16
I25
I21
tp939
(lp940
I7
as(I1
I2
I11
tp941
(lp942
I2
as(I8
I23
I8
tp943
(lp944
I4
aI9
aI12
aI20
as(I6
I21
I24
tp945
(lp946
I3
as(I22
I12
I1
tp947
(lp948
I12
as(I9
I16
I25
tp949
(lp950
I5
as(I14
I4
I12
tp951
(lp952
I8
as(I11
I20
I12
tp953
(lp954
I8
as(I18
I9
I24
tp955
(lp956
I9
as(I22
I20
I24
tp957
(lp958
I3
aI9
as(I20
I15
I23
tp959
(lp960
I16
as(I3
I16
I24
tp961
(lp962
I22
aI25
as(I16
I3
I21
tp963
(lp964
I3
as(I14
I17
I20
tp965
(lp966
I17
as(I5
I18
I9
tp967
(lp968
I18
as(I20
I18
I12
tp969
(lp970
I1
as(I2
I15
I16
tp971
(lp972
I15
aI23
as(I5
I6
I23
tp973
(lp974
I22
as(I4
I25
I8
tp975
(lp976
I9
aI12
as(I4
I8
I24
tp977
(lp978
I3
aI9
as(I21
I11
I23
tp979
(lp980
I16
aI17
as(I13
I2
I10
tp981
(lp982
I14
aI21
as(I12
I25
I9
tp983
(lp984
I24
as(I12
I10
I14
tp985
(lp986
I10
as(I2
I13
I11
tp987
(lp988
I15
as(I5
I4
I18
tp989
(lp990
I9
as(I16
I13
I10
tp991
(lp992
I13
as(I8
I23
I3
tp993
(lp994
I21
as(I6
I5
I2
tp995
(lp996
I5
as(I14
I6
I16
tp997
(lp998
I6
as(I1
I9
I25
tp999
(lp1000
I24
as(I8
I7
I21
tp1001
(lp1002
I7
as(I13
I16
I14
tp1003
(lp1004
I2
aI22
as(I1
I2
I3
tp1005
(lp1006
I2
as(I8
I4
I17
tp1007
(lp1008
I4
as(I22
I12
I23
tp1009
(lp1010
I16
aI21
as(I12
I24
I20
tp1011
(lp1012
I3
as(I6
I21
I16
tp1013
(lp1014
I23
as(I6
I1
I14
tp1015
(lp1016
I10
as(I9
I23
I15
tp1017
(lp1018
I16
aI17
as(I3
I22
I5
tp1019
(lp1020
I19
as(I19
I24
I2
tp1021
(lp1022
I3
as(I14
I4
I20
tp1023
(lp1024
I4
as(I11
I20
I4
tp1025
(lp1026
I20
as(I15
I2
I13
tp1027
(lp1028
I14
as(I4
I25
I5
tp1029
(lp1030
I25
as(I22
I3
I23
tp1031
(lp1032
I17
aI21
as(I8
I19
I25
tp1033
(lp1034
I5
aI19
as(I24
I12
I11
tp1035
(lp1036
I12
as(I13
I3
I21
tp1037
(lp1038
I3
as(I15
I10
I11
tp1039
(lp1040
I2
aI7
aI12
as(I21
I6
I10
tp1041
(lp1042
I1
aI13
as(I12
I22
I6
tp1043
(lp1044
I16
aI19
aI22
as(I23
I7
I15
tp1045
(lp1046
I11
as(I8
I7
I6
tp1047
(lp1048
I19
as(I10
I15
I12
tp1049
(lp1050
I11
as(I9
I18
I11
tp1051
(lp1052
I15
as(I9
I1
I8
tp1053
(lp1054
I12
as(I4
I5
I23
tp1055
(lp1056
I16
as(I14
I22
I13
tp1057
(lp1058
I10
aI19
as(I11
I2
I15
tp1059
(lp1060
I16
aI17
as(I10
I21
I14
tp1061
(lp1062
I2
aI22
as(I12
I24
I6
tp1063
(lp1064
I19
aI22
as(I2
I13
I19
tp1065
(lp1066
I13
as(I18
I5
I18
tp1067
(lp1068
I1
aI9
aI13
aI15
as(I23
I9
I24
tp1069
(lp1070
I9
as(I9
I16
I6
tp1071
(lp1072
I16
as(I22
I14
I24
tp1073
(lp1074
I3
aI25
as(I15
I2
I4
tp1075
(lp1076
I20
as(I11
I21
I11
tp1077
(lp1078
I2
aI7
aI12
aI15
as(I1
I11
I16
tp1079
(lp1080
I15
as(I25
I12
I7
tp1081
(lp1082
I1
aI11
as(I2
I11
I14
tp1083
(lp1084
I10
as(I13
I15
I12
tp1085
(lp1086
I11
as(I17
I19
I23
tp1087
(lp1088
I16
aI22
as(I8
I7
I11
tp1089
(lp1090
I7
as(I13
I15
I13
tp1091
(lp1092
I10
aI14
aI18
aI19
as(I13
I16
I23
tp1093
(lp1094
I16
as(I17
I7
I11
tp1095
(lp1096
I7
aI12
as(I18
I9
I8
tp1097
(lp1098
I4
aI9
as(I22
I20
I8
tp1099
(lp1100
I20
as(I14
I17
I13
tp1101
(lp1102
I18
as(I5
I18
I7
tp1103
(lp1104
I1
as(I4
I14
I3
tp1105
(lp1106
I2
aI21
as(I15
I13
I9
tp1107
(lp1108
I18
as(I24
I12
I3
tp1109
(lp1110
I2
as(I16
I3
I5
tp1111
(lp1112
I2
aI25
as(I13
I3
I13
tp1113
(lp1114
I10
aI14
aI18
aI19
as(I11
I2
I21
tp1115
(lp1116
I3
aI10
as(I24
I17
I18
tp1117
(lp1118
I15
as(I1
I6
I16
tp1119
(lp1120
I6
as(I14
I6
I2
tp1121
(lp1122
I5
aI11
as(I20
I22
I9
tp1123
(lp1124
I24
as(I25
I10
I7
tp1125
(lp1126
I1
aI21
as(I16
I25
I6
tp1127
(lp1128
I19
aI22
as(I11
I2
I7
tp1129
(lp1130
I1
aI21
aI25
as(I23
I8
I16
tp1131
(lp1132
I6
as(I21
I11
I1
tp1133
(lp1134
I7
aI12
as(I5
I4
I2
tp1135
(lp1136
I3
as(I13
I3
I2
tp1137
(lp1138
I3
as(I12
I24
I2
tp1139
(lp1140
I3
as(I17
I7
I5
tp1141
(lp1142
I25
as(I11
I21
I3
tp1143
(lp1144
I21
as(I7
I8
I12
tp1145
(lp1146
I8
as(I10
I25
I22
tp1147
(lp1148
I24
as(I5
I18
I25
tp1149
(lp1150
I7
aI19
aI24
as(I21
I3
I24
tp1151
(lp1152
I3
as(I15
I2
I20
tp1153
(lp1154
I3
as(I25
I4
I7
tp1155
(lp1156
I11
as(I19
I8
I13
tp1157
(lp1158
I10
aI18
as(I11
I1
I11
tp1159
(lp1160
I2
aI7
aI12
aI15
as(I3
I22
I21
tp1161
(lp1162
I10
aI23
as(I13
I15
I5
tp1163
(lp1164
I16
as(I2
I15
I1
tp1165
(lp1166
I18
as(I17
I7
I3
tp1167
(lp1168
I21
as(I22
I12
I2
tp1169
(lp1170
I11
as(I20
I15
I12
tp1171
(lp1172
I11
as(I21
I10
I12
tp1173
(lp1174
I1
as(I25
I16
I25
tp1175
(lp1176
I5
aI7
aI19
aI24
as(I21
I10
I11
tp1177
(lp1178
I12
as(I21
I11
I21
tp1179
(lp1180
I3
aI7
aI10
aI23
as(I12
I24
I22
tp1181
(lp1182
I24
as(I23
I9
I15
tp1183
(lp1184
I18
as(I19
I17
I16
tp1185
(lp1186
I15
aI23
as(I1
I6
I25
tp1187
(lp1188
I19
as(I6
I5
I19
tp1189
(lp1190
I5
aI25
as(I3
I21
I17
tp1191
(lp1192
I23
as(I10
I25
I7
tp1193
(lp1194
I25
as(I23
I8
I24
tp1195
(lp1196
I9
as(I18
I20
I3
tp1197
(lp1198
I20
as(I18
I5
I2
tp1199
(lp1200
I5
as(I6
I21
I1
tp1201
(lp1202
I7
aI10
as(I17
I14
I18
tp1203
(lp1204
I13
as(I7
I23
I20
tp1205
(lp1206
I17
as(I9
I16
I22
tp1207
(lp1208
I6
aI23
as(I19
I24
I19
tp1209
(lp1210
I5
aI6
aI13
aI25
as(I10
I21
I1
tp1211
(lp1212
I7
aI12
as(I18
I9
I17
tp1213
(lp1214
I4
aI20
as(I15
I13
I4
tp1215
(lp1216
I9
as(I8
I4
I9
tp1217
(lp1218
I4
aI18
aI24
as(I3
I16
I17
tp1219
(lp1220
I15
aI23
as(I20
I11
I17
tp1221
(lp1222
I4
aI15
as(I19
I8
I5
tp1223
(lp1224
I2
as(I7
I8
I24
tp1225
(lp1226
I9
as(I23
I9
I17
tp1227
(lp1228
I4
aI15
aI20
as(I5
I6
I16
tp1229
(lp1230
I6
aI23
as(I20
I15
I4
tp1231
(lp1232
I9
aI17
as(I12
I22
I23
tp1233
(lp1234
I22
as(I1
I6
I10
tp1235
(lp1236
I13
aI14
as(I7
I8
I9
tp1237
(lp1238
I4
aI8
as(I13
I2
I19
tp1239
(lp1240
I5
aI6
aI25
as(I12
I25
I2
tp1241
(lp1242
I5
as(I7
I8
I20
tp1243
(lp1244
I8
as(I12
I10
I1
tp1245
(lp1246
I7
aI10
aI18
as(I24
I19
I25
tp1247
(lp1248
I5
aI19
as(I21
I10
I22
tp1249
(lp1250
I14
as(I23
I7
I23
tp1251
(lp1252
I16
aI17
aI21
aI22
as(I9
I18
I20
tp1253
(lp1254
I17
as(I22
I3
I25
tp1255
(lp1256
I5
as(I3
I21
I25
tp1257
(lp1258
I7
as(I6
I14
I2
tp1259
(lp1260
I14
as(I4
I5
I15
tp1261
(lp1262
I16
as(I16
I25
I22
tp1263
(lp1264
I24
as(I10
I21
I10
tp1265
(lp1266
I1
aI13
aI14
aI21
as(I1
I2
I12
tp1267
(lp1268
I11
as(I15
I13
I2
tp1269
(lp1270
I14
as(I17
I19
I5
tp1271
(lp1272
I19
aI25
as(I18
I5
I16
tp1273
(lp1274
I5
aI6
as(I6
I21
I25
tp1275
(lp1276
I7
as(I4
I25
I2
tp1277
(lp1278
I5
as(I11
I1
I18
tp1279
(lp1280
I1
aI13
as(I2
I11
I5
tp1281
(lp1282
I16
aI19
aI25
as(I11
I1
I14
tp1283
(lp1284
I10
as(I14
I4
I15
tp1285
(lp1286
I17
as(I18
I9
I25
tp1287
(lp1288
I24
as(I16
I13
I18
tp1289
(lp1290
I13
as(I8
I19
I22
tp1291
(lp1292
I6
as(I4
I14
I18
tp1293
(lp1294
I1
aI13
as(I3
I16
I25
tp1295
(lp1296
I5
as(I14
I17
I21
tp1297
(lp1298
I23
as(I7
I17
I21
tp1299
(lp1300
I3
aI23
as(I7
I8
I4
tp1301
(lp1302
I8
as(I21
I6
I3
tp1303
(lp1304
I24
as(I20
I18
I15
tp1305
(lp1306
I18
as(I2
I15
I17
tp1307
(lp1308
I15
as(I5
I6
I24
tp1309
(lp1310
I22
as(I10
I15
I21
tp1311
(lp1312
I7
aI23
as(I9
I18
I4
tp1313
(lp1314
I17
aI20
as(I10
I21
I23
tp1315
(lp1316
I21
as(I20
I22
I24
tp1317
(lp1318
I22
as(I4
I5
I16
tp1319
(lp1320
I5
as(I10
I25
I1
tp1321
(lp1322
I7
as(I11
I2
I20
tp1323
(lp1324
I3
as(I10
I21
I7
tp1325
(lp1326
I21
as(I16
I9
I12
tp1327
(lp1328
I1
aI8
as(I15
I20
I23
tp1329
(lp1330
I17
as(I7
I23
I15
tp1331
(lp1332
I16
aI17
as(I22
I14
I23
tp1333
(lp1334
I21
as(I25
I10
I21
tp1335
(lp1336
I10
as(I1
I9
I24
tp1337
(lp1338
I9
as(I24
I17
I4
tp1339
(lp1340
I17
aI20
as(I6
I1
I22
tp1341
(lp1342
I14
as(I15
I2
I5
tp1343
(lp1344
I2
as(I25
I4
I8
tp1345
(lp1346
I4
aI20
as(I17
I14
I2
tp1347
(lp1348
I14
as(I22
I12
I8
tp1349
(lp1350
I12
as(I3
I22
I2
tp1351
(lp1352
I5
aI14
as(I19
I24
I3
tp1353
(lp1354
I24
as(I14
I4
I23
tp1355
(lp1356
I17
as(I11
I21
I16
tp1357
(lp1358
I23
as(I18
I9
I1
tp1359
(lp1360
I7
aI12
as(I17
I19
I18
tp1361
(lp1362
I13
as(I4
I14
I10
tp1363
(lp1364
I14
as(I16
I3
I2
tp1365
(lp1366
I3
as(I25
I4
I9
tp1367
(lp1368
I4
aI8
as(I13
I15
I19
tp1369
(lp1370
I5
aI6
as(I21
I6
I11
tp1371
(lp1372
I12
as(I2
I15
I25
tp1373
(lp1374
I7
as(I12
I22
I25
tp1375
(lp1376
I24
as(I20
I15
I20
tp1377
(lp1378
I3
aI4
aI8
aI17
as(I10
I15
I13
tp1379
(lp1380
I18
as(I9
I18
I12
tp1381
(lp1382
I1
aI11
as(I12
I22
I1
tp1383
(lp1384
I10
as(I9
I1
I11
tp1385
(lp1386
I7
aI12
as(I4
I5
I24
tp1387
(lp1388
I3
aI25
as(I13
I2
I3
tp1389
(lp1390
I2
as(I11
I2
I12
tp1391
(lp1392
I8
as(I23
I8
I9
tp1393
(lp1394
I8
as(I24
I19
I9
tp1395
(lp1396
I18
as(I18
I5
I19
tp1397
(lp1398
I5
aI25
as(I6
I21
I14
tp1399
(lp1400
I10
as(I7
I23
I7
tp1401
(lp1402
I1
aI11
aI21
aI25
as(I7
I8
I18
tp1403
(lp1404
I9
as(I8
I7
I25
tp1405
(lp1406
I7
as(I13
I16
I19
tp1407
(lp1408
I5
aI6
aI25
as(I21
I3
I23
tp1409
(lp1410
I17
aI22
as(I8
I4
I24
tp1411
(lp1412
I3
aI9
as(I3
I16
I2
tp1413
(lp1414
I5
aI11
as(I17
I14
I10
tp1415
(lp1416
I14
as(I9
I23
I22
tp1417
(lp1418
I23
as(I3
I22
I10
tp1419
(lp1420
I14
as(I14
I22
I2
tp1421
(lp1422
I3
as(I17
I7
I10
tp1423
(lp1424
I1
as(I16
I13
I2
tp1425
(lp1426
I14
as(I13
I16
I6
tp1427
(lp1428
I16
as(I25
I16
I22
tp1429
(lp1430
I6
aI23
as(I4
I14
I2
tp1431
(lp1432
I14
as(I24
I12
I2
tp1433
(lp1434
I11
as(I14
I22
I19
tp1435
(lp1436
I6
aI25
as(I25
I4
I17
tp1437
(lp1438
I4
as(I19
I17
I19
tp1439
(lp1440
I5
aI6
aI13
as(I21
I6
I19
tp1441
(lp1442
I6
as(I17
I19
I15
tp1443
(lp1444
I16
aI18
as(I16
I9
I6
tp1445
(lp1446
I12
aI22
as(I19
I17
I23
tp1447
(lp1448
I17
as(I6
I5
I24
tp1449
(lp1450
I25
as(I22
I12
I21
tp1451
(lp1452
I7
as(I4
I8
I15
tp1453
(lp1454
I11
as(I14
I6
I1
tp1455
(lp1456
I12
as(I20
I22
I8
tp1457
(lp1458
I9
aI12
as(I25
I10
I24
tp1459
(lp1460
I3
aI22
as(I16
I25
I7
tp1461
(lp1462
I25
as(I22
I3
I22
tp1463
(lp1464
I6
aI14
aI23
aI24
as(I23
I8
I17
tp1465
(lp1466
I4
aI20
as(I6
I1
I7
tp1467
(lp1468
I1
as(I11
I21
I10
tp1469
(lp1470
I21
as(I5
I4
I3
tp1471
(lp1472
I20
as(I6
I21
I6
tp1473
(lp1474
I12
aI16
aI19
aI22
as(I17
I19
I3
tp1475
(lp1476
I24
as(I4
I8
I3
tp1477
(lp1478
I20
aI24
as(I2
I11
I6
tp1479
(lp1480
I12
as(I11
I21
I2
tp1481
(lp1482
I3
aI14
as(I8
I19
I7
tp1483
(lp1484
I25
as(I6
I1
I6
tp1485
(lp1486
I12
aI16
aI19
aI22
as(I15
I2
I21
tp1487
(lp1488
I3
as(I1
I11
I21
tp1489
(lp1490
I3
aI7
as(I14
I6
I5
tp1491
(lp1492
I16
aI19
as(I3
I13
I24
tp1493
(lp1494
I9
aI22
aI25
as(I11
I1
I10
tp1495
(lp1496
I1
as(I13
I15
I4
tp1497
(lp1498
I17
as(I2
I15
I2
tp1499
(lp1500
I3
aI5
aI11
aI14
as(I11
I20
I21
tp1501
(lp1502
I3
as(I22
I20
I3
tp1503
(lp1504
I20
as(I9
I1
I18
tp1505
(lp1506
I1
aI13
aI15
as(I16
I25
I11
tp1507
(lp1508
I7
as(I24
I19
I22
tp1509
(lp1510
I6
aI14
as(I21
I11
I14
tp1511
(lp1512
I2
as(I6
I5
I16
tp1513
(lp1514
I5
aI15
as(I22
I14
I6
tp1515
(lp1516
I12
aI19
as(I8
I7
I10
tp1517
(lp1518
I21
as(I1
I9
I11
tp1519
(lp1520
I15
as(I16
I25
I15
tp1521
(lp1522
I11
as(I17
I24
I18
tp1523
(lp1524
I9
as(I8
I23
I24
tp1525
(lp1526
I22
as(I9
I16
I23
tp1527
(lp1528
I16
as(I14
I4
I6
tp1529
(lp1530
I12
as(I25
I4
I5
tp1531
(lp1532
I16
as(I7
I8
I10
tp1533
(lp1534
I1
as(I1
I11
I10
tp1535
(lp1536
I14
aI21
as(I15
I20
I8
tp1537
(lp1538
I20
as(I8
I4
I8
tp1539
(lp1540
I4
aI9
aI12
aI20
as(I1
I11
I13
tp1541
(lp1542
I14
as(I25
I4
I20
tp1543
(lp1544
I4
aI17
as(I14
I17
I18
tp1545
(lp1546
I15
as(I19
I8
I6
tp1547
(lp1548
I12
aI22
as(I13
I15
I18
tp1549
(lp1550
I9
aI15
as(I24
I17
I3
tp1551
(lp1552
I20
aI21
as(I5
I6
I22
tp1553
(lp1554
I6
as(I4
I25
I15
tp1555
(lp1556
I16
as(I23
I9
I3
tp1557
(lp1558
I24
as(I25
I16
I6
tp1559
(lp1560
I16
as(I24
I12
I18
tp1561
(lp1562
I1
as(I13
I2
I12
tp1563
(lp1564
I11
as(I15
I10
I16
tp1565
(lp1566
I23
as(I23
I9
I22
tp1567
(lp1568
I24
as(I2
I13
I1
tp1569
(lp1570
I18
as(I12
I22
I14
tp1571
(lp1572
I22
as(I23
I7
I22
tp1573
(lp1574
I24
as(I25
I4
I23
tp1575
(lp1576
I17
as(I3
I21
I24
tp1577
(lp1578
I22
aI25
as(I6
I14
I1
tp1579
(lp1580
I10
as(I2
I1
I25
tp1581
(lp1582
I7
as(I1
I2
I13
tp1583
(lp1584
I14
as(I13
I16
I25
tp1585
(lp1586
I5
as(I20
I11
I15
tp1587
(lp1588
I11
as(I6
I21
I22
tp1589
(lp1590
I14
aI23
aI24
as(I6
I1
I9
tp1591
(lp1592
I18
as(I19
I24
I12
tp1593
(lp1594
I8
as(I14
I4
I14
tp1595
(lp1596
I2
aI13
aI22
as(I17
I7
I25
tp1597
(lp1598
I7
as(I11
I1
I16
tp1599
(lp1600
I6
as(I4
I14
I21
tp1601
(lp1602
I10
as(I16
I3
I11
tp1603
(lp1604
I2
as(I21
I11
I3
tp1605
(lp1606
I2
as(I7
I17
I20
tp1607
(lp1608
I17
as(I25
I4
I24
tp1609
(lp1610
I3
aI9
aI22
as(I2
I15
I18
tp1611
(lp1612
I15
as(I5
I6
I25
tp1613
(lp1614
I19
aI24
as(I4
I8
I20
tp1615
(lp1616
I3
aI8
as(I8
I7
I19
tp1617
(lp1618
I25
as(I5
I18
I24
tp1619
(lp1620
I9
as(I10
I21
I22
tp1621
(lp1622
I23
aI24
as(I4
I5
I17
tp1623
(lp1624
I15
aI23
as(I12
I25
I11
tp1625
(lp1626
I2
aI7
as(I24
I19
I6
tp1627
(lp1628
I16
aI19
as(I25
I12
I5
tp1629
(lp1630
I2
aI16
aI19
as(I5
I4
I16
tp1631
(lp1632
I15
aI23
as(I22
I12
I9
tp1633
(lp1634
I8
as(I2
I11
I19
tp1635
(lp1636
I25
as(I10
I12
I7
tp1637
(lp1638
I1
aI11
as(I22
I14
I22
tp1639
(lp1640
I6
aI14
aI23
aI24
as(I16
I13
I19
tp1641
(lp1642
I13
as(I2
I11
I7
tp1643
(lp1644
I11
as(I15
I20
I15
tp1645
(lp1646
I11
aI16
aI17
aI18
as(I1
I2
I5
tp1647
(lp1648
I2
as(I18
I20
I18
tp1649
(lp1650
I1
aI9
aI15
as(I20
I11
I7
tp1651
(lp1652
I11
as(I7
I17
I11
tp1653
(lp1654
I2
aI15
as(I17
I14
I3
tp1655
(lp1656
I2
aI21
as(I22
I12
I11
tp1657
(lp1658
I12
as(I3
I22
I3
tp1659
(lp1660
I2
aI20
aI21
aI24
as(I22
I3
I17
tp1661
(lp1662
I20
as(I6
I1
I15
tp1663
(lp1664
I18
as(I8
I19
I20
tp1665
(lp1666
I3
as(I4
I25
I19
tp1667
(lp1668
I25
as(I4
I14
I13
tp1669
(lp1670
I10
aI14
as(I15
I13
I10
tp1671
(lp1672
I13
aI14
as(I24
I12
I9
tp1673
(lp1674
I4
aI8
aI18
as(I16
I25
I5
tp1675
(lp1676
I19
aI25
as(I14
I17
I2
tp1677
(lp1678
I3
aI11
as(I12
I24
I4
tp1679
(lp1680
I9
as(I19
I8
I22
tp1681
(lp1682
I24
as(I21
I6
I12
tp1683
(lp1684
I6
as(I12
I22
I24
tp1685
(lp1686
I22
as(I23
I7
I1
tp1687
(lp1688
I7
as(I10
I15
I14
tp1689
(lp1690
I2
as(I3
I21
I7
tp1691
(lp1692
I21
as(I9
I1
I10
tp1693
(lp1694
I1
as(I20
I22
I3
tp1695
(lp1696
I2
aI21
aI24
as(I25
I10
I1
tp1697
(lp1698
I10
as(I2
I1
I14
tp1699
(lp1700
I10
aI13
as(I12
I25
I19
tp1701
(lp1702
I5
aI25
as(I10
I21
I12
tp1703
(lp1704
I11
as(I24
I19
I14
tp1705
(lp1706
I13
as(I7
I8
I7
tp1707
(lp1708
I1
aI11
aI21
aI25
as(I5
I4
I24
tp1709
(lp1710
I3
aI9
as(I17
I24
I3
tp1711
(lp1712
I24
as(I8
I23
I9
tp1713
(lp1714
I4
aI24
as(I9
I16
I4
tp1715
(lp1716
I17
as(I12
I24
I3
tp1717
(lp1718
I24
as(I21
I3
I22
tp1719
(lp1720
I24
as(I2
I11
I8
tp1721
(lp1722
I12
as(I3
I16
I3
tp1723
(lp1724
I2
aI20
aI21
aI24
as(I7
I17
I3
tp1725
(lp1726
I20
as(I17
I14
I11
tp1727
(lp1728
I2
as(I9
I23
I21
tp1729
(lp1730
I23
as(I20
I18
I17
tp1731
(lp1732
I4
aI15
as(I13
I16
I21
tp1733
(lp1734
I23
as(I15
I13
I6
tp1735
(lp1736
I19
as(I25
I16
I23
tp1737
(lp1738
I16
as(I24
I12
I1
tp1739
(lp1740
I12
as(I21
I10
I13
tp1741
(lp1742
I10
as(I14
I17
I10
tp1743
(lp1744
I21
as(I15
I10
I1
tp1745
(lp1746
I10
as(I12
I10
I19
tp1747
(lp1748
I13
as(I15
I20
I16
tp1749
(lp1750
I23
as(I14
I6
I22
tp1751
(lp1752
I6
aI23
as(I19
I17
I22
tp1753
(lp1754
I23
as(I23
I7
I25
tp1755
(lp1756
I7
as(I6
I5
I25
tp1757
(lp1758
I5
as(I8
I7
I3
tp1759
(lp1760
I21
as(I10
I25
I13
tp1761
(lp1762
I19
as(I25
I10
I25
tp1763
(lp1764
I5
aI7
aI19
aI24
as(I11
I2
I5
tp1765
(lp1766
I2
as(I19
I17
I14
tp1767
(lp1768
I22
as(I3
I13
I22
tp1769
(lp1770
I14
as(I2
I13
I25
tp1771
(lp1772
I19
as(I6
I21
I7
tp1773
(lp1774
I21
as(I17
I14
I20
tp1775
(lp1776
I3
as(I8
I23
I17
tp1777
(lp1778
I23
as(I9
I16
I12
tp1779
(lp1780
I6
as(I17
I19
I20
tp1781
(lp1782
I3
as(I11
I21
I1
tp1783
(lp1784
I7
aI10
as(I2
I11
I21
tp1785
(lp1786
I7
as(I11
I2
I25
tp1787
(lp1788
I5
as(I1
I2
I21
tp1789
(lp1790
I3
as(I15
I2
I18
tp1791
(lp1792
I9
aI13
as(I3
I16
I11
tp1793
(lp1794
I15
as(I16
I3
I24
tp1795
(lp1796
I3
as(I6
I1
I13
tp1797
(lp1798
I10
aI18
as(I11
I1
I9
tp1799
(lp1800
I18
as(I3
I22
I19
tp1801
(lp1802
I6
as(I1
I6
I7
tp1803
(lp1804
I11
aI25
as(I2
I15
I3
tp1805
(lp1806
I20
aI21
as(I17
I7
I1
tp1807
(lp1808
I7
as(I20
I15
I2
tp1809
(lp1810
I11
as(I22
I20
I2
tp1811
(lp1812
I3
as(I15
I2
I7
tp1813
(lp1814
I21
as(I24
I12
I25
tp1815
(lp1816
I7
aI19
as(I13
I2
I21
tp1817
(lp1818
I3
as(I25
I12
I6
tp1819
(lp1820
I12
as(I24
I17
I22
tp1821
(lp1822
I23
as(I14
I22
I10
tp1823
(lp1824
I13
aI21
as(I23
I7
I17
tp1825
(lp1826
I15
as(I10
I12
I22
tp1827
(lp1828
I6
as(I22
I14
I5
tp1829
(lp1830
I2
as(I22
I3
I24
tp1831
(lp1832
I3
aI25
as(I3
I21
I23
tp1833
(lp1834
I21
as(I10
I25
I5
tp1835
(lp1836
I25
as(I4
I25
I12
tp1837
(lp1838
I6
as(I4
I5
I9
tp1839
(lp1840
I18
aI24
as(I16
I25
I16
tp1841
(lp1842
I5
aI6
aI15
aI23
as(I3
I13
I14
tp1843
(lp1844
I10
aI13
as(I19
I8
I9
tp1845
(lp1846
I4
aI8
as(I5
I4
I8
tp1847
(lp1848
I4
as(I4
I25
I4
tp1849
(lp1850
I8
aI9
aI17
aI20
as(I7
I23
I22
tp1851
(lp1852
I23
as(I13
I16
I10
tp1853
(lp1854
I21
as(I6
I5
I12
tp1855
(lp1856
I11
as(I8
I19
I12
tp1857
(lp1858
I1
aI6
as(I25
I12
I2
tp1859
(lp1860
I11
as(I8
I4
I15
tp1861
(lp1862
I17
as(I1
I11
I12
tp1863
(lp1864
I6
aI11
as(I16
I3
I16
tp1865
(lp1866
I5
aI6
aI15
aI23
as(I21
I11
I10
tp1867
(lp1868
I1
aI14
as(I18
I5
I25
tp1869
(lp1870
I5
as(I20
I18
I1
tp1871
(lp1872
I18
as(I2
I15
I11
tp1873
(lp1874
I12
aI15
as(I19
I17
I13
tp1875
(lp1876
I14
aI18
as(I22
I12
I14
tp1877
(lp1878
I2
aI10
as(I25
I16
I7
tp1879
(lp1880
I11
aI21
as(I13
I2
I13
tp1881
(lp1882
I10
aI14
aI18
aI19
as(I12
I25
I12
tp1883
(lp1884
I1
aI6
aI8
aI11
as(I15
I10
I17
tp1885
(lp1886
I23
as(I23
I9
I21
tp1887
(lp1888
I3
as(I2
I13
I6
tp1889
(lp1890
I19
as(I8
I23
I6
tp1891
(lp1892
I22
as(I10
I12
I14
tp1893
(lp1894
I2
aI22
as(I22
I14
I13
tp1895
(lp1896
I14
as(I1
I9
I18
tp1897
(lp1898
I9
aI15
as(I21
I10
I2
tp1899
(lp1900
I14
as(I16
I25
I24
tp1901
(lp1902
I25
as(I16
I25
I19
tp1903
(lp1904
I5
aI25
as(I1
I2
I14
tp1905
(lp1906
I2
as(I25
I4
I3
tp1907
(lp1908
I20
as(I6
I1
I19
tp1909
(lp1910
I13
aI25
as(I8
I7
I9
tp1911
(lp1912
I18
aI24
as(I20
I11
I12
tp1913
(lp1914
I11
as(I6
I21
I23
tp1915
(lp1916
I21
as(I9
I23
I4
tp1917
(lp1918
I17
aI20
as(I19
I24
I13
tp1919
(lp1920
I14
aI18
as(I14
I4
I9
tp1921
(lp1922
I4
aI8
as(I11
I20
I15
tp1923
(lp1924
I16
aI17
as(I11
I21
I17
tp1925
(lp1926
I23
as(I18
I9
I7
tp1927
(lp1928
I25
as(I22
I20
I21
tp1929
(lp1930
I3
as(I6
I5
I11
tp1931
(lp1932
I2
as(I4
I14
I20
tp1933
(lp1934
I3
aI17
as(I16
I9
I16
tp1935
(lp1936
I5
aI6
aI15
aI23
as(I21
I11
I2
tp1937
(lp1938
I11
as(I15
I10
I14
tp1939
(lp1940
I10
as(I20
I18
I9
tp1941
(lp1942
I18
as(I6
I14
I11
tp1943
(lp1944
I2
as(I19
I17
I5
tp1945
(lp1946
I16
as(I20
I15
I18
tp1947
(lp1948
I15
as(I10
I15
I23
tp1949
(lp1950
I16
aI17
as(I25
I16
I15
tp1951
(lp1952
I16
as(I18
I5
I7
tp1953
(lp1954
I25
as(I4
I5
I18
tp1955
(lp1956
I13
as(I13
I2
I5
tp1957
(lp1958
I2
as(I11
I2
I10
tp1959
(lp1960
I14
as(I12
I10
I11
tp1961
(lp1962
I2
aI7
as(I5
I18
I16
tp1963
(lp1964
I15
as(I2
I13
I14
tp1965
(lp1966
I10
aI13
aI22
as(I5
I4
I17
tp1967
(lp1968
I4
aI20
as(I7
I23
I1
tp1969
(lp1970
I10
as(I10
I12
I6
tp1971
(lp1972
I12
as(I22
I14
I21
tp1973
(lp1974
I10
as(I16
I9
I24
tp1975
(lp1976
I9
as(I10
I25
I21
tp1977
(lp1978
I3
aI7
as(I22
I12
I7
tp1979
(lp1980
I1
as(I11
I1
I2
tp1981
(lp1982
I14
as(I21
I3
I13
tp1983
(lp1984
I14
as(I15
I2
I3
tp1985
(lp1986
I2
as(I21
I10
I21
tp1987
(lp1988
I3
aI7
aI10
aI23
as(I20
I11
I4
tp1989
(lp1990
I8
aI17
as(I4
I25
I20
tp1991
(lp1992
I3
aI8
as(I22
I12
I10
tp1993
(lp1994
I1
as(I14
I22
I3
tp1995
(lp1996
I24
as(I14
I4
I17
tp1997
(lp1998
I4
aI20
as(I11
I20
I7
tp1999
(lp2000
I21
as(I18
I9
I15
tp2001
(lp2002
I11
aI17
as(I15
I20
I3
tp2003
(lp2004
I20
as(I8
I19
I6
tp2005
(lp2006
I16
aI19
as(I24
I12
I8
tp2007
(lp2008
I12
as(I14
I17
I3
tp2009
(lp2010
I20
aI21
as(I12
I24
I11
tp2011
(lp2012
I2
as(I21
I6
I13
tp2013
(lp2014
I19
as(I16
I9
I5
tp2015
(lp2016
I25
as(I5
I6
I2
tp2017
(lp2018
I11
aI14
as(I1
I6
I12
tp2019
(lp2020
I6
aI11
as(I8
I7
I24
tp2021
(lp2022
I25
as(I9
I1
I13
tp2023
(lp2024
I10
aI14
as(I20
I22
I2
tp2025
(lp2026
I14
as(I25
I10
I2
tp2027
(lp2028
I14
as(I2
I1
I15
tp2029
(lp2030
I18
as(I4
I25
I13
tp2031
(lp2032
I19
as(I10
I21
I13
tp2033
(lp2034
I14
as(I13
I3
I18
tp2035
(lp2036
I9
as(I2
I13
I22
tp2037
(lp2038
I6
as(I5
I4
I25
tp2039
(lp2040
I24
as(I6
I21
I12
tp2041
(lp2042
I1
aI11
as(I8
I23
I22
tp2043
(lp2044
I23
as(I8
I7
I1
tp2045
(lp2046
I7
aI10
as(I11
I2
I14
tp2047
(lp2048
I2
as(I19
I17
I18
tp2049
(lp2050
I9
aI15
as(I17
I7
I16
tp2051
(lp2052
I5
as(I21
I3
I21
tp2053
(lp2054
I3
aI7
aI10
aI23
as(I15
I2
I11
tp2055
(lp2056
I2
aI7
as(I6
I14
I22
tp2057
(lp2058
I14
as(I7
I17
I2
tp2059
(lp2060
I3
as(I9
I23
I20
tp2061
(lp2062
I17
as(I13
I15
I10
tp2063
(lp2064
I1
aI21
as(I13
I16
I18
tp2065
(lp2066
I15
as(I13
I3
I10
tp2067
(lp2068
I14
aI21
as(I20
I15
I11
tp2069
(lp2070
I15
as(I5
I18
I2
tp2071
(lp2072
I11
aI14
as(I4
I14
I4
tp2073
(lp2074
I9
aI17
aI20
as(I21
I10
I14
tp2075
(lp2076
I10
aI13
as(I14
I17
I11
tp2077
(lp2078
I15
as(I12
I24
I19
tp2079
(lp2080
I25
as(I12
I10
I18
tp2081
(lp2082
I13
as(I21
I6
I21
tp2083
(lp2084
I3
aI7
aI10
aI23
as(I24
I17
I20
tp2085
(lp2086
I4
aI17
as(I19
I17
I9
tp2087
(lp2088
I4
as(I23
I7
I24
tp2089
(lp2090
I25
as(I6
I5
I22
tp2091
(lp2092
I14
aI23
aI24
as(I10
I15
I7
tp2093
(lp2094
I11
as(I3
I21
I14
tp2095
(lp2096
I10
aI13
as(I10
I25
I10
tp2097
(lp2098
I1
aI13
aI14
aI21
as(I15
I13
I18
tp2099
(lp2100
I1
aI13
as(I4
I5
I2
tp2101
(lp2102
I5
as(I2
I1
I7
tp2103
(lp2104
I1
as(I3
I13
I21
tp2105
(lp2106
I10
as(I18
I20
I12
tp2107
(lp2108
I8
as(I18
I5
I9
tp2109
(lp2110
I24
as(I17
I24
I8
tp2111
(lp2112
I9
as(I17
I14
I21
tp2113
(lp2114
I3
aI10
as(I7
I23
I17
tp2115
(lp2116
I23
as(I9
I16
I13
tp2117
(lp2118
I19
as(I4
I25
I16
tp2119
(lp2120
I5
as(I25
I12
I19
tp2121
(lp2122
I6
as(I18
I9
I20
tp2123
(lp2124
I4
as(I9
I16
I15
tp2125
(lp2126
I16
as(I16
I25
I23
tp2127
(lp2128
I21
aI22
as(I16
I3
I25
tp2129
(lp2130
I24
as(I20
I11
I20
tp2131
(lp2132
I3
aI4
aI8
aI17
as(I5
I18
I15
tp2133
(lp2134
I18
as(I3
I22
I16
tp2135
(lp2136
I6
as(I20
I18
I24
tp2137
(lp2138
I9
as(I11
I20
I23
tp2139
(lp2140
I17
as(I20
I15
I3
tp2141
(lp2142
I2
as(I15
I20
I18
tp2143
(lp2144
I9
as(I6
I14
I12
tp2145
(lp2146
I1
aI11
as(I24
I12
I24
tp2147
(lp2148
I3
aI9
aI22
aI25
as(I14
I22
I25
tp2149
(lp2150
I24
as(I12
I25
I5
tp2151
(lp2152
I25
as(I23
I7
I16
tp2153
(lp2154
I5
aI15
as(I6
I5
I14
tp2155
(lp2156
I2
as(I8
I7
I8
tp2157
(lp2158
I9
aI12
aI20
as(I3
I21
I22
tp2159
(lp2160
I23
as(I1
I9
I13
tp2161
(lp2162
I18
as(I13
I3
I5
tp2163
(lp2164
I2
as(I24
I17
I15
tp2165
(lp2166
I17
as(I18
I20
I4
tp2167
(lp2168
I17
aI20
as(I5
I4
I9
tp2169
(lp2170
I4
aI8
as(I6
I1
I8
tp2171
(lp2172
I9
as(I9
I23
I3
tp2173
(lp2174
I21
as(I4
I25
I3
tp2175
(lp2176
I2
aI24
as(I19
I24
I22
tp2177
(lp2178
I24
as(I16
I13
I21
tp2179
(lp2180
I10
as(I8
I19
I13
tp2181
(lp2182
I19
as(I15
I13
I1
tp2183
(lp2184
I10
as(I2
I11
I25
tp2185
(lp2186
I7
as(I3
I16
I20
tp2187
(lp2188
I17
as(I16
I3
I17
tp2189
(lp2190
I20
as(I14
I17
I16
tp2191
(lp2192
I15
as(I7
I17
I18
tp2193
(lp2194
I15
as(I19
I8
I24
tp2195
(lp2196
I9
as(I3
I22
I24
tp2197
(lp2198
I22
aI25
as(I2
I15
I12
tp2199
(lp2200
I1
as(I5
I6
I19
tp2201
(lp2202
I6
aI13
as(I25
I12
I9
tp2203
(lp2204
I8
as(I10
I15
I16
tp2205
(lp2206
I15
as(I13
I16
I5
tp2207
(lp2208
I16
as(I20
I22
I21
tp2209
(lp2210
I23
as(I13
I2
I14
tp2211
(lp2212
I2
aI10
as(I23
I8
I4
tp2213
(lp2214
I8
aI9
aI20
as(I12
I10
I2
tp2215
(lp2216
I14
as(I25
I12
I11
tp2217
(lp2218
I12
as(I15
I20
I17
tp2219
(lp2220
I4
aI20
as(I10
I12
I1
tp2221
(lp2222
I7
aI12
as(I22
I14
I12
tp2223
(lp2224
I11
as(I14
I6
I23
tp2225
(lp2226
I16
as(I1
I6
I1
tp2227
(lp2228
I7
aI10
aI12
aI18
as(I15
I20
I9
tp2229
(lp2230
I4
aI8
as(I12
I22
I2
tp2231
(lp2232
I3
aI14
as(I1
I2
I15
tp2233
(lp2234
I11
as(I3
I13
I5
tp2235
(lp2236
I19
as(I13
I15
I14
tp2237
(lp2238
I2
as(I17
I14
I5
tp2239
(lp2240
I2
as(I19
I24
I14
tp2241
(lp2242
I22
as(I14
I4
I8
tp2243
(lp2244
I4
as(I11
I20
I8
tp2245
(lp2246
I4
aI9
aI20
as(I19
I24
I5
tp2247
(lp2248
I2
aI25
as(I18
I9
I4
tp2249
(lp2250
I9
as(I17
I7
I20
tp2251
(lp2252
I3
as(I4
I14
I23
tp2253
(lp2254
I22
as(I15
I13
I11
tp2255
(lp2256
I2
as(I1
I11
I3
tp2257
(lp2258
I2
as(I1
I9
I8
tp2259
(lp2260
I4
aI9
as(I14
I17
I24
tp2261
(lp2262
I3
as(I15
I10
I15
tp2263
(lp2264
I11
aI16
aI17
aI18
as(I20
I18
I8
tp2265
(lp2266
I9
aI12
as(I2
I15
I20
tp2267
(lp2268
I17
as(I19
I17
I4
tp2269
(lp2270
I17
as(I23
I7
I11
tp2271
(lp2272
I7
as(I24
I17
I21
tp2273
(lp2274
I23
as(I9
I18
I7
tp2275
(lp2276
I1
as(I9
I1
I4
tp2277
(lp2278
I8
as(I12
I22
I15
tp2279
(lp2280
I16
as(I4
I5
I19
tp2281
(lp2282
I5
as(I13
I2
I6
tp2283
(lp2284
I12
as(I11
I2
I11
tp2285
(lp2286
I2
aI7
aI12
aI15
as(I23
I8
I12
tp2287
(lp2288
I8
as(I16
I9
I15
tp2289
(lp2290
I17
aI18
as(I2
I13
I15
tp2291
(lp2292
I18
as(I19
I8
I1
tp2293
(lp2294
I12
as(I17
I24
I20
tp2295
(lp2296
I3
aI4
aI8
as(I4
I25
I17
tp2297
(lp2298
I15
as(I6
I14
I5
tp2299
(lp2300
I2
as(I1
I2
I7
tp2301
(lp2302
I11
aI21
aI25
as(I2
I11
I2
tp2303
(lp2304
I3
aI5
aI11
aI14
as(I7
I23
I25
tp2305
(lp2306
I5
aI24
as(I17
I14
I13
tp2307
(lp2308
I14
as(I11
I1
I7
tp2309
(lp2310
I1
aI21
as(I9
I16
I5
tp2311
(lp2312
I16
as(I19
I24
I6
tp2313
(lp2314
I12
aI22
as(I17
I7
I23
tp2315
(lp2316
I16
aI21
as(I18
I9
I12
tp2317
(lp2318
I8
as(I22
I20
I12
tp2319
(lp2320
I8
as(I17
I19
I13
tp2321
(lp2322
I19
as(I15
I20
I11
tp2323
(lp2324
I2
aI12
as(I15
I13
I17
tp2325
(lp2326
I4
as(I13
I3
I9
tp2327
(lp2328
I24
as(I15
I10
I7
tp2329
(lp2330
I1
as(I12
I10
I21
tp2331
(lp2332
I10
as(I21
I3
I10
tp2333
(lp2334
I13
aI14
as(I23
I7
I3
tp2335
(lp2336
I2
as(I1
I6
I13
tp2337
(lp2338
I19
as(I9
I18
I15
tp2339
(lp2340
I18
as(I3
I21
I5
tp2341
(lp2342
I25
as(I9
I1
I12
tp2343
(lp2344
I1
aI11
as(I25
I10
I3
tp2345
(lp2346
I21
as(I2
I1
I12
tp2347
(lp2348
I1
as(I11
I2
I3
tp2349
(lp2350
I2
as(I23
I8
I20
tp2351
(lp2352
I4
aI8
as(I7
I8
I1
tp2353
(lp2354
I12
aI18
as(I14
I6
I10
tp2355
(lp2356
I1
aI13
as(I7
I23
I24
tp2357
(lp2358
I22
as(I14
I22
I24
tp2359
(lp2360
I22
as(I3
I13
I9
tp2361
(lp2362
I18
as(I11
I21
I15
tp2363
(lp2364
I16
aI17
as(I22
I3
I10
tp2365
(lp2366
I21
as(I21
I3
I20
tp2367
(lp2368
I3
as(I2
I11
I10
tp2369
(lp2370
I1
as(I3
I16
I5
tp2371
(lp2372
I16
as(I15
I13
I15
tp2373
(lp2374
I11
aI16
aI17
aI18
as(I7
I17
I1
tp2375
(lp2376
I18
as(I6
I1
I12
tp2377
(lp2378
I1
aI8
aI11
as(I11
I1
I15
tp2379
(lp2380
I16
aI18
as(I14
I6
I14
tp2381
(lp2382
I2
aI10
aI13
aI22
as(I13
I15
I9
tp2383
(lp2384
I4
as(I14
I4
I24
tp2385
(lp2386
I9
as(I17
I7
I15
tp2387
(lp2388
I11
aI16
aI18
as(I20
I15
I8
tp2389
(lp2390
I4
aI9
aI12
as(I22
I20
I4
tp2391
(lp2392
I20
as(I25
I16
I21
tp2393
(lp2394
I23
as(I15
I13
I25
tp2395
(lp2396
I19
as(I24
I12
I7
tp2397
(lp2398
I1
aI11
as(I1
I9
I10
tp2399
(lp2400
I13
aI14
as(I21
I11
I17
tp2401
(lp2402
I15
as(I12
I24
I18
tp2403
(lp2404
I9
as(I8
I7
I17
tp2405
(lp2406
I15
as(I21
I6
I22
tp2407
(lp2408
I6
as(I22
I12
I16
tp2409
(lp2410
I6
aI15
as(I5
I6
I11
tp2411
(lp2412
I12
as(I6
I5
I23
tp2413
(lp2414
I16
as(I22
I14
I3
tp2415
(lp2416
I2
aI21
as(I4
I8
I12
tp2417
(lp2418
I8
as(I3
I21
I13
tp2419
(lp2420
I10
as(I1
I9
I4
tp2421
(lp2422
I9
as(I4
I5
I3
tp2423
(lp2424
I2
as(I18
I20
I15
tp2425
(lp2426
I17
as(I1
I9
I1
tp2427
(lp2428
I7
aI10
aI12
aI18
as(I18
I5
I14
tp2429
(lp2430
I2
as(I17
I24
I9
tp2431
(lp2432
I24
as(I17
I14
I22
tp2433
(lp2434
I14
as(I7
I23
I16
tp2435
(lp2436
I23
as(I9
I16
I18
tp2437
(lp2438
I13
aI15
as(I11
I21
I7
tp2439
(lp2440
I1
aI21
as(I1
I11
I14
tp2441
(lp2442
I2
as(I15
I2
I16
tp2443
(lp2444
I5
aI23
as(I1
I11
I18
tp2445
(lp2446
I13
aI15
as(I20
I11
I21
tp2447
(lp2448
I7
as(I7
I17
I25
tp2449
(lp2450
I24
as(I18
I5
I24
tp2451
(lp2452
I25
as(I3
I22
I17
tp2453
(lp2454
I23
as(I11
I21
I12
tp2455
(lp2456
I1
as(I2
I15
I5
tp2457
(lp2458
I16
aI25
as(I11
I20
I16
tp2459
(lp2460
I23
as(I5
I18
I11
tp2461
(lp2462
I15
as(I1
I9
I12
tp2463
(lp2464
I8
aI11
as(I12
I25
I6
tp2465
(lp2466
I16
aI19
aI22
as(I15
I10
I23
tp2467
(lp2468
I21
as(I16
I9
I4
tp2469
(lp2470
I9
as(I6
I5
I15
tp2471
(lp2472
I11
as(I22
I14
I11
tp2473
(lp2474
I2
as(I4
I8
I4
tp2475
(lp2476
I8
aI9
aI17
aI20
as(I10
I25
I3
tp2477
(lp2478
I24
as(I25
I10
I19
tp2479
(lp2480
I13
as.