(dp0
(I16
I25
I18
tp1
(lp2
I11
as(I14
I5
I20
tp3
(lp4
I5
aI13
as(I17
I20
I14
tp5
(lp6
I19
as(I18
I20
I7
tp7
(lp8
I15
as(I12
I16
I23
tp9
(lp10
I10
aI22
as(I15
I8
I13
tp11
(lp12
I16
as(I20
I17
I18
tp13
(lp14
I3
aI11
as(I6
I17
I8
tp15
(lp16
I4
aI9
as(I16
I12
I10
tp17
(lp18
I9
aI23
as(I19
I14
I25
tp19
(lp20
I9
aI11
as(I1
I11
I10
tp21
(lp22
I9
aI14
aI23
as(I15
I17
I8
tp23
(lp24
I6
as(I9
I22
I21
tp25
(lp26
I6
as(I12
I8
I12
tp27
(lp28
I19
aI21
aI23
aI25
as(I14
I5
I16
tp29
(lp30
I13
as(I17
I6
I17
tp31
(lp32
I3
aI4
aI7
aI11
as(I19
I14
I21
tp33
(lp34
I1
as(I22
I21
I12
tp35
(lp36
I21
as(I15
I17
I2
tp37
(lp38
I4
aI7
as(I10
I4
I14
tp39
(lp40
I9
as(I18
I1
I16
tp41
(lp42
I1
as(I13
I20
I22
tp43
(lp44
I5
as(I11
I2
I16
tp45
(lp46
I2
as(I3
I24
I16
tp47
(lp48
I2
aI24
as(I25
I12
I8
tp49
(lp50
I21
as(I7
I9
I14
tp51
(lp52
I9
as(I17
I15
I17
tp53
(lp54
I3
aI4
aI7
aI11
as(I7
I2
I15
tp55
(lp56
I4
aI13
as(I2
I7
I24
tp57
(lp58
I3
aI20
as(I6
I14
I6
tp59
(lp60
I3
aI8
aI21
aI22
as(I24
I3
I19
tp61
(lp62
I14
as(I20
I10
I22
tp63
(lp64
I23
as(I12
I8
I19
tp65
(lp66
I14
as(I21
I22
I21
tp67
(lp68
I1
aI6
aI8
aI12
as(I12
I6
I19
tp69
(lp70
I5
as(I6
I12
I19
tp71
(lp72
I12
as(I10
I1
I14
tp73
(lp74
I18
aI19
as(I7
I5
I24
tp75
(lp76
I16
aI20
as(I1
I11
I2
tp77
(lp78
I7
as(I3
I2
I6
tp79
(lp80
I8
as(I2
I3
I17
tp81
(lp82
I3
as(I8
I12
I25
tp83
(lp84
I12
aI23
as(I10
I4
I15
tp85
(lp86
I4
as(I15
I16
I24
tp87
(lp88
I16
as(I22
I21
I4
tp89
(lp90
I8
as(I2
I5
I4
tp91
(lp92
I15
as(I22
I9
I10
tp93
(lp94
I9
aI14
as(I18
I1
I8
tp95
(lp96
I21
as(I4
I5
I20
tp97
(lp98
I5
aI19
as(I12
I25
I22
tp99
(lp100
I23
as(I24
I19
I5
tp101
(lp102
I19
as(I11
I22
I23
tp103
(lp104
I22
as(I17
I15
I25
tp105
(lp106
I23
as(I8
I9
I25
tp107
(lp108
I9
as(I2
I7
I16
tp109
(lp110
I13
as(I16
I21
I3
tp111
(lp112
I6
aI18
as(I8
I15
I21
tp113
(lp114
I6
as(I2
I11
I3
tp115
(lp116
I17
aI18
as(I14
I19
I10
tp117
(lp118
I9
aI23
as(I8
I17
I2
tp119
(lp120
I7
as(I15
I8
I23
tp121
(lp122
I25
as(I20
I17
I2
tp123
(lp124
I4
aI7
as(I19
I14
I10
tp125
(lp126
I14
as(I17
I8
I7
tp127
(lp128
I2
aI15
as(I25
I16
I18
tp129
(lp130
I1
aI3
as(I15
I13
I16
tp131
(lp132
I13
as(I13
I20
I15
tp133
(lp134
I4
aI22
as(I6
I11
I12
tp135
(lp136
I25
as(I2
I3
I6
tp137
(lp138
I3
as(I12
I16
I13
tp139
(lp140
I16
as(I20
I18
I12
tp141
(lp142
I21
as(I17
I6
I1
tp143
(lp144
I21
as(I22
I11
I2
tp145
(lp146
I7
as(I1
I10
I21
tp147
(lp148
I6
aI8
aI12
as(I8
I17
I8
tp149
(lp150
I4
aI6
aI9
aI21
as(I24
I19
I13
tp151
(lp152
I5
aI20
as(I1
I18
I14
tp153
(lp154
I18
as(I12
I16
I6
tp155
(lp156
I3
as(I20
I10
I9
tp157
(lp158
I10
as(I8
I9
I17
tp159
(lp160
I11
as(I9
I7
I4
tp161
(lp162
I2
aI15
aI17
as(I22
I11
I23
tp163
(lp164
I12
aI25
as(I12
I6
I5
tp165
(lp166
I22
as(I3
I2
I11
tp167
(lp168
I7
as(I16
I12
I25
tp169
(lp170
I12
as(I10
I1
I23
tp171
(lp172
I12
aI25
as(I17
I20
I22
tp173
(lp174
I5
as(I19
I3
I14
tp175
(lp176
I9
aI18
as(I1
I11
I25
tp177
(lp178
I11
as(I5
I14
I8
tp179
(lp180
I9
as(I13
I4
I17
tp181
(lp182
I4
as(I9
I22
I6
tp183
(lp184
I22
as(I11
I1
I14
tp185
(lp186
I10
as(I10
I4
I22
tp187
(lp188
I15
as(I6
I12
I11
tp189
(lp190
I25
as(I21
I22
I5
tp191
(lp192
I22
as(I11
I6
I18
tp193
(lp194
I1
aI3
as(I12
I6
I3
tp195
(lp196
I6
as(I15
I13
I24
tp197
(lp198
I20
as(I10
I4
I10
tp199
(lp200
I1
aI9
aI14
aI23
as(I8
I12
I9
tp201
(lp202
I10
aI14
aI25
as(I3
I24
I1
tp203
(lp204
I16
as(I24
I19
I18
tp205
(lp206
I14
as(I8
I9
I19
tp207
(lp208
I14
as(I15
I16
I8
tp209
(lp210
I21
as(I16
I15
I5
tp211
(lp212
I22
as(I9
I8
I25
tp213
(lp214
I11
aI12
as(I6
I14
I21
tp215
(lp216
I1
aI8
aI12
as(I10
I24
I16
tp217
(lp218
I2
aI24
as(I4
I5
I4
tp219
(lp220
I2
aI8
aI15
as(I5
I14
I5
tp221
(lp222
I13
aI19
aI20
aI22
as(I8
I9
I21
tp223
(lp224
I1
aI12
as(I4
I18
I21
tp225
(lp226
I1
as(I18
I20
I14
tp227
(lp228
I19
as(I1
I18
I6
tp229
(lp230
I3
as(I5
I4
I7
tp231
(lp232
I17
as(I20
I10
I1
tp233
(lp234
I10
as(I4
I10
I12
tp235
(lp236
I23
as(I19
I24
I16
tp237
(lp238
I24
as(I16
I21
I19
tp239
(lp240
I12
as(I4
I13
I16
tp241
(lp242
I13
aI24
as(I2
I5
I15
tp243
(lp244
I13
as(I16
I12
I1
tp245
(lp246
I10
aI18
aI21
as(I15
I13
I7
tp247
(lp248
I2
as(I19
I3
I22
tp249
(lp250
I6
as(I1
I11
I17
tp251
(lp252
I11
as(I6
I11
I21
tp253
(lp254
I1
aI12
as(I9
I22
I14
tp255
(lp256
I10
aI19
as(I14
I5
I9
tp257
(lp258
I25
as(I9
I8
I10
tp259
(lp260
I1
aI23
as(I15
I17
I7
tp261
(lp262
I2
aI11
aI17
as(I12
I25
I14
tp263
(lp264
I9
aI18
as(I25
I16
I2
tp265
(lp266
I16
as(I18
I1
I25
tp267
(lp268
I12
as(I20
I10
I20
tp269
(lp270
I5
aI13
aI19
aI24
as(I7
I2
I4
tp271
(lp272
I2
as(I10
I20
I16
tp273
(lp274
I13
aI24
as(I21
I25
I18
tp275
(lp276
I11
as(I16
I15
I13
tp277
(lp278
I5
aI15
as(I13
I7
I5
tp279
(lp280
I22
as(I16
I21
I12
tp281
(lp282
I21
as(I16
I25
I19
tp283
(lp284
I12
as(I24
I3
I8
tp285
(lp286
I6
as(I17
I20
I15
tp287
(lp288
I13
aI22
as(I5
I14
I24
tp289
(lp290
I3
as(I18
I20
I6
tp291
(lp292
I22
as(I5
I4
I15
tp293
(lp294
I4
aI7
as(I16
I25
I11
tp295
(lp296
I25
as(I21
I25
I8
tp297
(lp298
I9
as(I11
I1
I21
tp299
(lp300
I1
as(I25
I21
I12
tp301
(lp302
I21
as(I25
I12
I14
tp303
(lp304
I10
aI19
as(I20
I17
I19
tp305
(lp306
I14
as(I6
I17
I9
tp307
(lp308
I25
as(I16
I12
I9
tp309
(lp310
I25
as(I15
I13
I15
tp311
(lp312
I4
aI7
aI13
aI22
as(I4
I13
I7
tp313
(lp314
I15
as(I1
I11
I9
tp315
(lp316
I14
aI25
as(I15
I17
I22
tp317
(lp318
I6
as(I13
I15
I24
tp319
(lp320
I2
as(I17
I6
I18
tp321
(lp322
I1
aI3
as(I19
I14
I18
tp323
(lp324
I14
as(I17
I8
I11
tp325
(lp326
I25
as(I25
I16
I10
tp327
(lp328
I1
as(I1
I10
I6
tp329
(lp330
I22
as(I11
I2
I17
tp331
(lp332
I3
aI4
aI7
as(I5
I4
I24
tp333
(lp334
I2
as(I25
I12
I9
tp335
(lp336
I8
aI10
aI14
as(I13
I7
I13
tp337
(lp338
I5
aI15
aI16
aI20
as(I16
I21
I4
tp339
(lp340
I8
as(I6
I14
I5
tp341
(lp342
I19
as(I7
I13
I2
tp343
(lp344
I4
aI16
aI24
as(I14
I6
I22
tp345
(lp346
I6
as(I24
I3
I16
tp347
(lp348
I1
aI2
as(I17
I20
I7
tp349
(lp350
I2
aI15
as(I2
I11
I4
tp351
(lp352
I15
aI17
as(I15
I8
I6
tp353
(lp354
I8
aI21
as(I5
I14
I3
tp355
(lp356
I18
as(I12
I6
I18
tp357
(lp358
I3
as(I16
I21
I6
tp359
(lp360
I8
aI21
as(I21
I16
I6
tp361
(lp362
I3
as(I3
I19
I6
tp363
(lp364
I21
aI22
as(I1
I11
I1
tp365
(lp366
I10
aI16
aI18
aI21
as(I3
I2
I7
tp367
(lp368
I2
as(I13
I15
I16
tp369
(lp370
I2
aI24
as(I22
I21
I5
tp371
(lp372
I19
as(I20
I18
I11
tp373
(lp374
I18
as(I18
I1
I9
tp375
(lp376
I10
as(I1
I10
I14
tp377
(lp378
I9
aI10
as(I22
I11
I7
tp379
(lp380
I11
aI17
as(I4
I18
I4
tp381
(lp382
I2
aI8
aI15
aI17
as(I1
I18
I23
tp383
(lp384
I25
as(I5
I4
I20
tp385
(lp386
I13
aI24
as(I25
I21
I23
tp387
(lp388
I10
aI12
aI22
as(I2
I7
I17
tp389
(lp390
I7
aI11
as(I9
I7
I3
tp391
(lp392
I17
as(I20
I13
I15
tp393
(lp394
I13
as(I16
I12
I16
tp395
(lp396
I1
aI13
aI24
as(I24
I3
I24
tp397
(lp398
I2
aI3
aI16
aI20
as(I19
I3
I9
tp399
(lp400
I8
as(I18
I20
I22
tp401
(lp402
I5
as(I24
I10
I4
tp403
(lp404
I8
as(I14
I19
I11
tp405
(lp406
I25
as(I2
I5
I24
tp407
(lp408
I16
aI20
as(I10
I4
I17
tp409
(lp410
I4
as(I20
I17
I3
tp411
(lp412
I17
aI18
as(I19
I14
I11
tp413
(lp414
I18
as(I6
I17
I25
tp415
(lp416
I11
as(I7
I5
I15
tp417
(lp418
I13
aI22
as(I3
I19
I14
tp419
(lp420
I19
as(I2
I3
I7
tp421
(lp422
I11
aI17
as(I10
I20
I3
tp423
(lp424
I24
as(I9
I8
I6
tp425
(lp426
I8
as(I15
I16
I1
tp427
(lp428
I16
as(I13
I7
I20
tp429
(lp430
I24
as(I22
I9
I19
tp431
(lp432
I14
as(I1
I10
I22
tp433
(lp434
I23
as(I10
I20
I10
tp435
(lp436
I1
aI9
aI14
aI23
as(I16
I25
I4
tp437
(lp438
I8
as(I11
I2
I1
tp439
(lp440
I16
as(I8
I17
I9
tp441
(lp442
I25
as(I8
I12
I21
tp443
(lp444
I1
aI12
as(I12
I16
I5
tp445
(lp446
I13
as(I4
I10
I23
tp447
(lp448
I10
as(I9
I7
I11
tp449
(lp450
I7
aI17
as(I8
I15
I5
tp451
(lp452
I13
as(I16
I12
I24
tp453
(lp454
I20
as(I14
I5
I22
tp455
(lp456
I5
as(I19
I3
I17
tp457
(lp458
I3
as(I5
I2
I19
tp459
(lp460
I20
as(I20
I18
I17
tp461
(lp462
I11
as(I13
I4
I22
tp463
(lp464
I15
as(I2
I5
I16
tp465
(lp466
I13
aI24
as(I13
I15
I7
tp467
(lp468
I15
as(I20
I17
I11
tp469
(lp470
I17
as(I21
I22
I6
tp471
(lp472
I8
aI22
as(I19
I14
I3
tp473
(lp474
I18
as(I13
I4
I15
tp475
(lp476
I4
aI7
as(I3
I19
I22
tp477
(lp478
I5
as(I13
I20
I4
tp479
(lp480
I2
as(I8
I12
I8
tp481
(lp482
I6
aI9
aI21
as(I3
I24
I2
tp483
(lp484
I16
aI24
as(I15
I8
I21
tp485
(lp486
I8
as(I16
I15
I2
tp487
(lp488
I4
aI7
as(I17
I8
I25
tp489
(lp490
I9
as(I25
I12
I25
tp491
(lp492
I9
aI11
aI12
aI23
as(I10
I24
I19
tp493
(lp494
I20
as(I6
I11
I4
tp495
(lp496
I17
as(I16
I25
I12
tp497
(lp498
I25
as(I24
I3
I1
tp499
(lp500
I18
aI21
as(I22
I11
I25
tp501
(lp502
I11
as(I18
I20
I1
tp503
(lp504
I16
as(I8
I9
I4
tp505
(lp506
I17
as(I4
I10
I15
tp507
(lp508
I22
as(I20
I17
I20
tp509
(lp510
I13
aI19
aI24
as(I2
I3
I2
tp511
(lp512
I4
aI7
aI16
aI24
as(I7
I5
I11
tp513
(lp514
I25
as(I8
I15
I2
tp515
(lp516
I7
as(I9
I8
I9
tp517
(lp518
I8
aI10
aI14
aI25
as(I19
I14
I24
tp519
(lp520
I3
as(I1
I11
I16
tp521
(lp522
I2
as(I6
I11
I22
tp523
(lp524
I15
as(I24
I10
I20
tp525
(lp526
I19
as(I9
I22
I15
tp527
(lp528
I22
as(I12
I8
I10
tp529
(lp530
I9
as(I10
I4
I1
tp531
(lp532
I16
aI21
as(I11
I6
I11
tp533
(lp534
I7
aI17
aI18
aI25
as(I22
I21
I18
tp535
(lp536
I1
as(I25
I16
I3
tp537
(lp538
I24
as(I16
I21
I20
tp539
(lp540
I19
as(I21
I25
I6
tp541
(lp542
I8
aI22
as(I10
I20
I19
tp543
(lp544
I5
aI20
as(I1
I18
I24
tp545
(lp546
I3
as(I7
I9
I4
tp547
(lp548
I8
as(I13
I7
I4
tp549
(lp550
I2
aI17
as(I2
I7
I2
tp551
(lp552
I4
aI7
aI16
aI24
as(I9
I7
I18
tp553
(lp554
I11
as(I14
I6
I12
tp555
(lp556
I21
as(I4
I5
I13
tp557
(lp558
I5
aI20
as(I16
I25
I20
tp559
(lp560
I19
as(I8
I17
I25
tp561
(lp562
I11
as(I12
I16
I21
tp563
(lp564
I1
aI6
as(I20
I10
I24
tp565
(lp566
I16
as(I15
I8
I15
tp567
(lp568
I4
aI7
aI13
aI22
as(I9
I8
I17
tp569
(lp570
I4
as(I20
I13
I19
tp571
(lp572
I5
as(I21
I25
I1
tp573
(lp574
I10
aI18
as(I9
I22
I23
tp575
(lp576
I22
as(I10
I4
I9
tp577
(lp578
I8
aI25
as(I11
I6
I3
tp579
(lp580
I6
as(I22
I21
I10
tp581
(lp582
I1
as(I21
I25
I12
tp583
(lp584
I23
aI25
as(I18
I1
I14
tp585
(lp586
I9
aI10
aI19
as(I17
I8
I21
tp587
(lp588
I8
as(I12
I25
I8
tp589
(lp590
I9
as(I3
I24
I18
tp591
(lp592
I1
aI11
as(I24
I19
I3
tp593
(lp594
I18
as(I1
I18
I16
tp595
(lp596
I24
as(I11
I22
I17
tp597
(lp598
I3
aI4
aI7
as(I20
I13
I16
tp599
(lp600
I13
as(I17
I15
I23
tp601
(lp602
I22
as(I17
I8
I9
tp603
(lp604
I8
as(I24
I3
I17
tp605
(lp606
I3
as(I17
I20
I4
tp607
(lp608
I2
aI15
as(I14
I5
I23
tp609
(lp610
I12
aI22
as(I20
I10
I16
tp611
(lp612
I1
as(I15
I8
I7
tp613
(lp614
I2
aI17
as(I15
I8
I22
tp615
(lp616
I6
aI23
as(I20
I17
I4
tp617
(lp618
I17
as(I21
I22
I23
tp619
(lp620
I22
as(I6
I17
I6
tp621
(lp622
I3
aI8
aI21
aI22
as(I10
I1
I12
tp623
(lp624
I21
as(I15
I13
I22
tp625
(lp626
I5
as(I11
I22
I4
tp627
(lp628
I15
as(I6
I11
I6
tp629
(lp630
I3
aI8
aI21
aI22
as(I10
I4
I25
tp631
(lp632
I9
aI11
as(I2
I3
I8
tp633
(lp634
I6
as(I17
I6
I11
tp635
(lp636
I18
aI25
as(I22
I9
I8
tp637
(lp638
I9
as(I18
I1
I6
tp639
(lp640
I8
aI21
as(I15
I13
I20
tp641
(lp642
I13
as(I4
I5
I22
tp643
(lp644
I5
as(I14
I6
I19
tp645
(lp646
I5
aI12
as(I5
I7
I2
tp647
(lp648
I7
as(I4
I18
I7
tp649
(lp650
I11
as(I7
I5
I13
tp651
(lp652
I5
aI20
as(I12
I16
I12
tp653
(lp654
I19
aI21
aI23
aI25
as(I18
I4
I7
tp655
(lp656
I2
aI17
as(I25
I21
I22
tp657
(lp658
I6
as(I2
I7
I18
tp659
(lp660
I11
as(I9
I7
I2
tp661
(lp662
I7
as(I20
I18
I10
tp663
(lp664
I1
as(I25
I12
I21
tp665
(lp666
I12
as(I16
I12
I23
tp667
(lp668
I12
as(I19
I3
I8
tp669
(lp670
I6
as(I5
I2
I20
tp671
(lp672
I13
aI24
as(I5
I14
I23
tp673
(lp674
I10
as(I14
I19
I12
tp675
(lp676
I19
as(I11
I1
I4
tp677
(lp678
I2
as(I12
I8
I25
tp679
(lp680
I9
aI23
as(I10
I4
I16
tp681
(lp682
I2
aI13
as(I15
I17
I6
tp683
(lp684
I3
as(I11
I6
I4
tp685
(lp686
I8
as(I3
I19
I17
tp687
(lp688
I11
as(I13
I20
I13
tp689
(lp690
I5
aI15
aI16
aI20
as(I7
I2
I18
tp691
(lp692
I3
as(I3
I24
I11
tp693
(lp694
I7
as(I11
I22
I6
tp695
(lp696
I22
as(I17
I6
I3
tp697
(lp698
I6
aI18
as(I15
I16
I2
tp699
(lp700
I16
aI24
as(I17
I8
I22
tp701
(lp702
I6
as(I11
I22
I12
tp703
(lp704
I23
as(I6
I14
I19
tp705
(lp706
I14
as(I5
I4
I13
tp707
(lp708
I15
aI16
as(I16
I21
I16
tp709
(lp710
I1
aI2
aI13
aI24
as(I4
I18
I15
tp711
(lp712
I7
as(I25
I12
I22
tp713
(lp714
I5
as(I7
I2
I13
tp715
(lp716
I16
as(I8
I12
I6
tp717
(lp718
I21
aI22
as(I17
I15
I7
tp719
(lp720
I2
aI15
as(I4
I10
I22
tp721
(lp722
I23
as(I5
I14
I1
tp723
(lp724
I18
as(I19
I3
I6
tp725
(lp726
I3
as(I7
I13
I17
tp727
(lp728
I4
as(I8
I15
I11
tp729
(lp730
I7
as(I20
I13
I4
tp731
(lp732
I15
as(I10
I1
I21
tp733
(lp734
I1
as(I19
I3
I16
tp735
(lp736
I24
as(I1
I11
I23
tp737
(lp738
I25
as(I11
I1
I12
tp739
(lp740
I21
as(I6
I17
I22
tp741
(lp742
I15
as(I9
I8
I4
tp743
(lp744
I8
as(I25
I16
I24
tp745
(lp746
I16
as(I3
I19
I25
tp747
(lp748
I12
as(I13
I20
I5
tp749
(lp750
I19
aI20
as(I2
I3
I24
tp751
(lp752
I3
as(I3
I24
I3
tp753
(lp754
I6
aI17
aI18
aI24
as(I24
I19
I16
tp755
(lp756
I1
aI13
as(I20
I18
I16
tp757
(lp758
I1
as(I19
I3
I21
tp759
(lp760
I6
as(I2
I7
I11
tp761
(lp762
I7
as(I10
I24
I18
tp763
(lp764
I1
aI3
as(I4
I5
I6
tp765
(lp766
I22
as(I16
I25
I13
tp767
(lp768
I20
as(I24
I3
I6
tp769
(lp770
I3
as(I8
I17
I18
tp771
(lp772
I11
as(I3
I2
I16
tp773
(lp774
I2
as(I5
I4
I5
tp775
(lp776
I13
aI20
aI22
as(I14
I19
I21
tp777
(lp778
I12
as(I25
I21
I6
tp779
(lp780
I21
as(I19
I24
I18
tp781
(lp782
I3
as(I6
I12
I3
tp783
(lp784
I17
as(I8
I15
I3
tp785
(lp786
I17
as(I9
I8
I14
tp787
(lp788
I18
as(I15
I13
I5
tp789
(lp790
I13
aI19
aI20
as(I19
I3
I24
tp791
(lp792
I3
as(I5
I2
I4
tp793
(lp794
I2
as(I8
I17
I4
tp795
(lp796
I2
aI15
aI17
as(I9
I22
I8
tp797
(lp798
I4
aI6
aI21
as(I12
I8
I9
tp799
(lp800
I8
as(I2
I5
I20
tp801
(lp802
I5
aI13
aI19
as(I21
I22
I15
tp803
(lp804
I22
as(I11
I6
I8
tp805
(lp806
I6
as(I22
I21
I19
tp807
(lp808
I12
as(I2
I3
I16
tp809
(lp810
I1
aI24
as(I10
I20
I18
tp811
(lp812
I3
as(I24
I19
I24
tp813
(lp814
I3
aI16
aI20
as(I1
I18
I25
tp815
(lp816
I11
as(I7
I9
I11
tp817
(lp818
I18
aI25
as(I7
I5
I12
tp819
(lp820
I19
as(I17
I8
I6
tp821
(lp822
I8
aI21
as(I2
I7
I3
tp823
(lp824
I17
aI18
as(I9
I7
I17
tp825
(lp826
I7
as(I5
I7
I16
tp827
(lp828
I2
as(I6
I14
I3
tp829
(lp830
I18
as(I21
I16
I1
tp831
(lp832
I16
aI18
as(I16
I25
I21
tp833
(lp834
I12
as(I24
I3
I14
tp835
(lp836
I18
as(I17
I20
I13
tp837
(lp838
I20
as(I18
I20
I24
tp839
(lp840
I16
aI20
as(I12
I16
I20
tp841
(lp842
I13
aI24
as(I5
I14
I6
tp843
(lp844
I8
as(I4
I10
I6
tp845
(lp846
I21
as(I6
I17
I15
tp847
(lp848
I4
aI7
as(I20
I13
I20
tp849
(lp850
I5
aI13
aI19
aI24
as(I10
I4
I8
tp851
(lp852
I4
as(I15
I8
I2
tp853
(lp854
I4
as(I1
I11
I7
tp855
(lp856
I11
as(I13
I4
I7
tp857
(lp858
I2
aI17
as(I13
I15
I22
tp859
(lp860
I15
as(I17
I6
I12
tp861
(lp862
I21
as(I5
I7
I17
tp863
(lp864
I7
as(I7
I5
I25
tp865
(lp866
I12
as(I1
I10
I8
tp867
(lp868
I9
as(I12
I25
I9
tp869
(lp870
I25
as(I8
I9
I10
tp871
(lp872
I9
aI14
as(I12
I16
I11
tp873
(lp874
I18
as(I18
I4
I14
tp875
(lp876
I9
as(I17
I15
I22
tp877
(lp878
I15
as(I17
I8
I14
tp879
(lp880
I9
as(I5
I14
I9
tp881
(lp882
I14
as(I9
I7
I25
tp883
(lp884
I11
aI23
as(I6
I12
I21
tp885
(lp886
I8
aI12
as(I17
I20
I5
tp887
(lp888
I20
as(I18
I20
I16
tp889
(lp890
I13
aI24
as(I24
I10
I14
tp891
(lp892
I10
as(I20
I10
I19
tp893
(lp894
I12
aI14
as(I6
I17
I7
tp895
(lp896
I17
as(I21
I16
I4
tp897
(lp898
I2
aI15
as(I13
I15
I2
tp899
(lp900
I4
aI7
as(I6
I11
I7
tp901
(lp902
I11
as(I8
I9
I12
tp903
(lp904
I19
aI25
as(I7
I9
I18
tp905
(lp906
I14
as(I17
I6
I4
tp907
(lp908
I8
aI15
as(I16
I15
I16
tp909
(lp910
I2
aI13
aI24
as(I22
I21
I3
tp911
(lp912
I18
as(I19
I3
I20
tp913
(lp914
I13
aI24
as(I14
I6
I5
tp915
(lp916
I22
as(I11
I2
I15
tp917
(lp918
I4
as(I21
I16
I23
tp919
(lp920
I10
as(I1
I18
I9
tp921
(lp922
I14
aI25
as(I12
I16
I3
tp923
(lp924
I24
as(I18
I4
I6
tp925
(lp926
I8
as(I8
I17
I7
tp927
(lp928
I17
as(I11
I22
I18
tp929
(lp930
I3
as(I15
I8
I25
tp931
(lp932
I9
as(I5
I14
I10
tp933
(lp934
I14
as(I7
I13
I24
tp935
(lp936
I16
aI20
as(I19
I3
I11
tp937
(lp938
I17
as(I24
I10
I6
tp939
(lp940
I8
as(I11
I1
I3
tp941
(lp942
I18
as(I13
I15
I13
tp943
(lp944
I5
aI15
aI16
aI20
as(I20
I17
I13
tp945
(lp946
I15
aI16
as(I19
I14
I9
tp947
(lp948
I10
aI14
as(I12
I6
I12
tp949
(lp950
I19
aI21
aI23
aI25
as(I25
I16
I17
tp951
(lp952
I3
as(I21
I16
I12
tp953
(lp954
I23
as(I3
I19
I16
tp955
(lp956
I13
as(I13
I20
I2
tp957
(lp958
I24
as(I6
I11
I15
tp959
(lp960
I7
as(I8
I12
I22
tp961
(lp962
I23
as(I10
I20
I5
tp963
(lp964
I20
as(I11
I22
I7
tp965
(lp966
I15
aI17
as(I16
I15
I24
tp967
(lp968
I2
aI20
as(I6
I14
I18
tp969
(lp970
I14
as(I10
I24
I21
tp971
(lp972
I6
as(I3
I2
I1
tp973
(lp974
I16
as(I11
I2
I7
tp975
(lp976
I2
aI15
aI17
as(I4
I18
I14
tp977
(lp978
I18
as(I18
I20
I11
tp979
(lp980
I7
as(I1
I18
I1
tp981
(lp982
I10
aI16
aI18
aI21
as(I5
I4
I2
tp983
(lp984
I4
as(I17
I15
I6
tp985
(lp986
I22
as(I25
I21
I25
tp987
(lp988
I9
aI11
aI12
aI23
as(I9
I7
I9
tp989
(lp990
I8
aI14
aI25
as(I7
I13
I16
tp991
(lp992
I13
aI24
as(I8
I15
I8
tp993
(lp994
I4
aI6
aI21
as(I20
I13
I5
tp995
(lp996
I13
aI22
as(I10
I1
I18
tp997
(lp998
I1
as(I8
I17
I21
tp999
(lp1000
I6
as(I19
I3
I19
tp1001
(lp1002
I5
aI12
aI14
aI20
as(I3
I2
I18
tp1003
(lp1004
I1
aI11
as(I13
I4
I20
tp1005
(lp1006
I24
as(I11
I1
I11
tp1007
(lp1008
I7
aI17
aI18
aI25
as(I13
I15
I5
tp1009
(lp1010
I22
as(I21
I22
I8
tp1011
(lp1012
I4
aI6
as(I19
I14
I1
tp1013
(lp1014
I18
as(I25
I16
I25
tp1015
(lp1016
I9
aI11
aI12
aI23
as(I5
I14
I16
tp1017
(lp1018
I1
as(I3
I19
I24
tp1019
(lp1020
I16
aI20
as(I22
I11
I15
tp1021
(lp1022
I4
aI7
as(I8
I12
I14
tp1023
(lp1024
I19
as(I3
I24
I4
tp1025
(lp1026
I2
as(I7
I9
I2
tp1027
(lp1028
I4
as(I18
I4
I17
tp1029
(lp1030
I4
as(I22
I9
I25
tp1031
(lp1032
I9
as(I14
I6
I10
tp1033
(lp1034
I1
aI9
as(I7
I13
I15
tp1035
(lp1036
I13
aI22
as(I10
I20
I14
tp1037
(lp1038
I18
aI19
as(I24
I3
I7
tp1039
(lp1040
I17
as(I18
I20
I3
tp1041
(lp1042
I6
aI24
as(I12
I16
I19
tp1043
(lp1044
I5
aI20
as(I8
I15
I13
tp1045
(lp1046
I15
as(I12
I6
I21
tp1047
(lp1048
I1
aI6
aI8
as(I25
I21
I1
tp1049
(lp1050
I21
as(I19
I24
I19
tp1051
(lp1052
I5
aI14
aI20
as(I6
I12
I23
tp1053
(lp1054
I12
aI25
as(I20
I13
I2
tp1055
(lp1056
I4
aI16
as(I6
I12
I17
tp1057
(lp1058
I11
as(I15
I13
I4
tp1059
(lp1060
I2
as(I4
I13
I2
tp1061
(lp1062
I7
aI16
aI24
as(I1
I11
I14
tp1063
(lp1064
I18
as(I9
I22
I9
tp1065
(lp1066
I8
aI10
aI14
aI25
as(I21
I25
I9
tp1067
(lp1068
I25
as(I17
I6
I21
tp1069
(lp1070
I6
as(I15
I16
I20
tp1071
(lp1072
I24
as(I11
I6
I9
tp1073
(lp1074
I8
as(I10
I24
I1
tp1075
(lp1076
I16
aI18
aI21
as(I25
I16
I1
tp1077
(lp1078
I16
as(I1
I10
I1
tp1079
(lp1080
I10
aI18
aI21
as(I7
I2
I3
tp1081
(lp1082
I24
as(I7
I9
I10
tp1083
(lp1084
I9
as(I18
I4
I9
tp1085
(lp1086
I8
as(I11
I22
I25
tp1087
(lp1088
I12
aI23
as(I13
I7
I2
tp1089
(lp1090
I4
aI7
as(I2
I7
I4
tp1091
(lp1092
I15
aI17
as(I12
I25
I21
tp1093
(lp1094
I8
as(I14
I6
I18
tp1095
(lp1096
I1
aI3
as(I7
I13
I7
tp1097
(lp1098
I2
aI15
aI17
as(I4
I5
I15
tp1099
(lp1100
I13
aI22
as(I24
I10
I9
tp1101
(lp1102
I10
as(I11
I1
I18
tp1103
(lp1104
I1
aI14
as(I25
I21
I9
tp1105
(lp1106
I8
aI10
as(I2
I5
I19
tp1107
(lp1108
I5
as(I10
I24
I6
tp1109
(lp1110
I3
as(I3
I19
I3
tp1111
(lp1112
I6
aI17
aI18
aI24
as(I5
I2
I13
tp1113
(lp1114
I16
aI20
as(I15
I8
I17
tp1115
(lp1116
I3
aI4
as(I14
I5
I1
tp1117
(lp1118
I16
as(I16
I21
I13
tp1119
(lp1120
I20
as(I10
I4
I11
tp1121
(lp1122
I17
as(I11
I6
I1
tp1123
(lp1124
I21
as(I22
I21
I8
tp1125
(lp1126
I21
as(I8
I9
I1
tp1127
(lp1128
I10
aI18
as(I22
I9
I6
tp1129
(lp1130
I8
aI21
as(I25
I16
I9
tp1131
(lp1132
I10
as(I18
I1
I12
tp1133
(lp1134
I21
as(I1
I10
I9
tp1135
(lp1136
I10
aI14
as(I4
I5
I16
tp1137
(lp1138
I13
as(I12
I25
I10
tp1139
(lp1140
I9
aI14
as(I5
I7
I3
tp1141
(lp1142
I17
as(I24
I19
I1
tp1143
(lp1144
I21
as(I12
I16
I10
tp1145
(lp1146
I1
as(I18
I4
I1
tp1147
(lp1148
I16
aI21
as(I17
I8
I15
tp1149
(lp1150
I4
aI22
as(I5
I14
I19
tp1151
(lp1152
I12
aI14
as(I6
I14
I10
tp1153
(lp1154
I14
as(I17
I20
I2
tp1155
(lp1156
I24
as(I2
I11
I7
tp1157
(lp1158
I11
aI17
as(I18
I20
I19
tp1159
(lp1160
I5
aI20
as(I5
I14
I22
tp1161
(lp1162
I6
aI23
as(I24
I10
I1
tp1163
(lp1164
I10
aI18
as(I20
I18
I21
tp1165
(lp1166
I1
as(I11
I6
I25
tp1167
(lp1168
I9
aI12
as(I12
I8
I23
tp1169
(lp1170
I10
aI22
aI25
as(I19
I24
I3
tp1171
(lp1172
I24
as(I21
I22
I25
tp1173
(lp1174
I23
as(I5
I7
I15
tp1175
(lp1176
I4
aI7
as(I21
I16
I9
tp1177
(lp1178
I10
as(I6
I17
I4
tp1179
(lp1180
I2
aI17
as(I10
I1
I10
tp1181
(lp1182
I1
aI9
aI14
aI23
as(I19
I14
I23
tp1183
(lp1184
I10
aI25
as(I3
I19
I11
tp1185
(lp1186
I25
as(I6
I11
I8
tp1187
(lp1188
I4
aI9
as(I7
I2
I24
tp1189
(lp1190
I2
aI16
as(I9
I22
I25
tp1191
(lp1192
I12
aI23
as(I8
I9
I11
tp1193
(lp1194
I25
as(I7
I9
I17
tp1195
(lp1196
I4
aI11
as(I15
I16
I4
tp1197
(lp1198
I2
aI8
as(I16
I15
I17
tp1199
(lp1200
I7
as(I22
I9
I14
tp1201
(lp1202
I9
as(I11
I22
I15
tp1203
(lp1204
I22
as(I4
I5
I24
tp1205
(lp1206
I16
aI20
as(I16
I21
I23
tp1207
(lp1208
I12
as(I12
I25
I18
tp1209
(lp1210
I11
as(I4
I18
I1
tp1211
(lp1212
I18
as(I1
I18
I10
tp1213
(lp1214
I9
aI14
aI23
as(I20
I10
I13
tp1215
(lp1216
I5
aI16
as(I4
I10
I24
tp1217
(lp1218
I16
as(I2
I7
I20
tp1219
(lp1220
I13
as(I16
I25
I7
tp1221
(lp1222
I11
aI17
as(I8
I15
I17
tp1223
(lp1224
I4
aI7
aI11
as(I16
I12
I21
tp1225
(lp1226
I12
as(I2
I11
I15
tp1227
(lp1228
I7
as(I5
I2
I22
tp1229
(lp1230
I15
as(I14
I19
I14
tp1231
(lp1232
I9
aI10
aI18
aI19
as(I11
I1
I2
tp1233
(lp1234
I16
as(I7
I5
I20
tp1235
(lp1236
I5
aI19
as(I20
I17
I14
tp1237
(lp1238
I18
as(I21
I22
I1
tp1239
(lp1240
I10
as(I11
I6
I22
tp1241
(lp1242
I6
as(I12
I25
I12
tp1243
(lp1244
I19
aI21
aI23
aI25
as(I21
I16
I13
tp1245
(lp1246
I16
as(I7
I2
I16
tp1247
(lp1248
I2
as(I4
I13
I15
tp1249
(lp1250
I13
aI22
as(I7
I9
I25
tp1251
(lp1252
I9
aI23
as(I16
I25
I17
tp1253
(lp1254
I11
as(I13
I7
I17
tp1255
(lp1256
I7
as(I22
I9
I22
tp1257
(lp1258
I5
aI6
aI15
aI23
as(I14
I6
I1
tp1259
(lp1260
I21
as(I1
I10
I25
tp1261
(lp1262
I9
as(I14
I5
I25
tp1263
(lp1264
I12
as(I11
I2
I4
tp1265
(lp1266
I2
as(I4
I18
I9
tp1267
(lp1268
I14
as(I20
I10
I5
tp1269
(lp1270
I19
aI22
as(I9
I8
I1
tp1271
(lp1272
I21
as(I4
I10
I16
tp1273
(lp1274
I1
as(I9
I7
I8
tp1275
(lp1276
I4
aI6
as(I20
I18
I14
tp1277
(lp1278
I10
aI18
as(I10
I1
I19
tp1279
(lp1280
I12
as(I17
I20
I18
tp1281
(lp1282
I14
as(I19
I3
I18
tp1283
(lp1284
I3
aI11
as(I1
I11
I21
tp1285
(lp1286
I12
as(I6
I11
I17
tp1287
(lp1288
I7
aI11
as(I8
I17
I3
tp1289
(lp1290
I17
aI18
as(I11
I1
I10
tp1291
(lp1292
I1
as(I13
I15
I4
tp1293
(lp1294
I15
as(I15
I17
I3
tp1295
(lp1296
I17
as(I22
I21
I25
tp1297
(lp1298
I12
as(I14
I5
I13
tp1299
(lp1300
I5
as(I21
I25
I11
tp1301
(lp1302
I25
as(I10
I20
I12
tp1303
(lp1304
I19
as(I14
I5
I14
tp1305
(lp1306
I9
aI10
aI19
as(I18
I4
I16
tp1307
(lp1308
I2
as(I2
I7
I13
tp1309
(lp1310
I15
as(I14
I6
I9
tp1311
(lp1312
I8
as(I4
I5
I8
tp1313
(lp1314
I6
as(I24
I3
I4
tp1315
(lp1316
I8
aI17
as(I4
I18
I17
tp1317
(lp1318
I3
aI7
aI11
as(I21
I16
I2
tp1319
(lp1320
I16
aI24
as(I12
I16
I18
tp1321
(lp1322
I1
as(I14
I19
I23
tp1323
(lp1324
I12
aI25
as(I4
I10
I8
tp1325
(lp1326
I6
aI9
aI21
as(I19
I24
I20
tp1327
(lp1328
I5
aI13
aI24
as(I6
I12
I22
tp1329
(lp1330
I5
aI23
as(I16
I12
I5
tp1331
(lp1332
I19
as(I20
I18
I13
tp1333
(lp1334
I16
as(I21
I16
I18
tp1335
(lp1336
I3
as(I6
I11
I25
tp1337
(lp1338
I11
as(I13
I4
I13
tp1339
(lp1340
I5
aI15
aI16
aI20
as(I9
I22
I10
tp1341
(lp1342
I23
as(I22
I11
I17
tp1343
(lp1344
I11
as(I10
I4
I2
tp1345
(lp1346
I4
as(I17
I6
I22
tp1347
(lp1348
I6
as(I15
I16
I21
tp1349
(lp1350
I1
as(I15
I17
I11
tp1351
(lp1352
I17
aI18
as(I10
I20
I1
tp1353
(lp1354
I16
as(I20
I18
I3
tp1355
(lp1356
I17
aI18
as(I19
I14
I19
tp1357
(lp1358
I12
aI14
aI20
as(I13
I20
I19
tp1359
(lp1360
I20
as(I8
I9
I6
tp1361
(lp1362
I21
as(I2
I3
I18
tp1363
(lp1364
I3
as(I5
I14
I12
tp1365
(lp1366
I25
as(I14
I6
I21
tp1367
(lp1368
I6
as(I20
I18
I5
tp1369
(lp1370
I19
as(I18
I4
I8
tp1371
(lp1372
I4
as(I17
I8
I4
tp1373
(lp1374
I8
aI15
as(I9
I7
I23
tp1375
(lp1376
I22
as(I11
I22
I11
tp1377
(lp1378
I7
aI17
aI18
aI25
as(I6
I14
I1
tp1379
(lp1380
I18
as(I12
I6
I23
tp1381
(lp1382
I22
aI25
as(I16
I25
I23
tp1383
(lp1384
I25
as(I25
I16
I11
tp1385
(lp1386
I7
aI17
aI18
as(I24
I10
I8
tp1387
(lp1388
I9
as(I11
I1
I17
tp1389
(lp1390
I3
aI4
as(I25
I21
I8
tp1391
(lp1392
I6
aI21
as(I7
I5
I19
tp1393
(lp1394
I5
as(I2
I5
I13
tp1395
(lp1396
I5
aI20
as(I16
I12
I13
tp1397
(lp1398
I5
aI20
as(I22
I11
I12
tp1399
(lp1400
I25
as(I3
I2
I3
tp1401
(lp1402
I6
aI17
aI18
aI24
as(I13
I4
I5
tp1403
(lp1404
I22
as(I13
I15
I20
tp1405
(lp1406
I5
aI24
as(I16
I15
I22
tp1407
(lp1408
I15
as(I6
I12
I25
tp1409
(lp1410
I12
as(I12
I25
I11
tp1411
(lp1412
I25
as(I25
I12
I5
tp1413
(lp1414
I19
as(I5
I4
I16
tp1415
(lp1416
I2
as(I22
I11
I4
tp1417
(lp1418
I2
aI17
as(I5
I14
I20
tp1419
(lp1420
I19
aI24
as(I6
I14
I9
tp1421
(lp1422
I10
aI14
as(I8
I15
I22
tp1423
(lp1424
I5
aI15
as(I4
I10
I1
tp1425
(lp1426
I10
as(I24
I3
I20
tp1427
(lp1428
I19
as(I17
I20
I3
tp1429
(lp1430
I18
aI24
as(I19
I3
I5
tp1431
(lp1432
I20
aI22
as(I18
I20
I18
tp1433
(lp1434
I1
aI3
aI11
aI14
as(I15
I17
I4
tp1435
(lp1436
I2
aI8
aI17
as(I11
I1
I25
tp1437
(lp1438
I9
aI12
aI23
as(I12
I8
I22
tp1439
(lp1440
I6
as(I20
I17
I7
tp1441
(lp1442
I17
as(I15
I17
I18
tp1443
(lp1444
I3
as(I12
I6
I22
tp1445
(lp1446
I6
as(I10
I1
I11
tp1447
(lp1448
I18
as(I15
I13
I19
tp1449
(lp1450
I20
as(I6
I11
I9
tp1451
(lp1452
I25
as(I2
I3
I11
tp1453
(lp1454
I17
aI18
as(I15
I16
I5
tp1455
(lp1456
I13
as(I8
I17
I15
tp1457
(lp1458
I4
aI7
as(I22
I21
I1
tp1459
(lp1460
I21
as(I22
I9
I15
tp1461
(lp1462
I4
as(I1
I10
I18
tp1463
(lp1464
I11
aI14
as(I12
I25
I19
tp1465
(lp1466
I5
aI14
as(I24
I19
I14
tp1467
(lp1468
I19
as(I1
I18
I11
tp1469
(lp1470
I18
as(I12
I16
I1
tp1471
(lp1472
I16
as(I20
I10
I12
tp1473
(lp1474
I23
as(I10
I20
I24
tp1475
(lp1476
I20
as(I16
I21
I24
tp1477
(lp1478
I3
aI20
as(I7
I13
I22
tp1479
(lp1480
I5
as(I16
I12
I20
tp1481
(lp1482
I5
aI19
as(I19
I3
I13
tp1483
(lp1484
I16
as(I24
I10
I24
tp1485
(lp1486
I2
aI3
aI16
aI20
as(I10
I4
I21
tp1487
(lp1488
I8
as(I20
I17
I15
tp1489
(lp1490
I4
aI7
as(I5
I7
I6
tp1491
(lp1492
I3
as(I25
I16
I23
tp1493
(lp1494
I10
as(I21
I16
I10
tp1495
(lp1496
I1
as(I3
I19
I18
tp1497
(lp1498
I11
aI14
as(I7
I2
I17
tp1499
(lp1500
I3
aI4
as(I2
I3
I1
tp1501
(lp1502
I18
as(I15
I16
I13
tp1503
(lp1504
I16
aI20
as(I13
I7
I16
tp1505
(lp1506
I2
aI24
as(I22
I9
I23
tp1507
(lp1508
I10
aI12
aI25
as(I16
I25
I8
tp1509
(lp1510
I9
as(I4
I18
I8
tp1511
(lp1512
I9
aI21
as(I18
I20
I13
tp1513
(lp1514
I20
as(I1
I18
I3
tp1515
(lp1516
I18
as(I12
I16
I25
tp1517
(lp1518
I11
as(I17
I15
I4
tp1519
(lp1520
I2
aI15
as(I9
I7
I15
tp1521
(lp1522
I7
as(I8
I15
I6
tp1523
(lp1524
I3
aI22
as(I9
I8
I21
tp1525
(lp1526
I6
aI8
as(I17
I20
I19
tp1527
(lp1528
I20
as(I2
I11
I16
tp1529
(lp1530
I1
as(I6
I11
I18
tp1531
(lp1532
I11
as(I8
I12
I1
tp1533
(lp1534
I10
as(I11
I1
I9
tp1535
(lp1536
I10
as(I12
I8
I6
tp1537
(lp1538
I8
as(I14
I5
I10
tp1539
(lp1540
I1
aI23
as(I21
I22
I10
tp1541
(lp1542
I23
as(I11
I6
I15
tp1543
(lp1544
I22
as(I22
I21
I22
tp1545
(lp1546
I5
aI6
aI15
aI23
as(I6
I17
I21
tp1547
(lp1548
I8
as(I13
I20
I24
tp1549
(lp1550
I20
as(I21
I25
I10
tp1551
(lp1552
I9
aI23
as(I3
I24
I6
tp1553
(lp1554
I8
as(I8
I17
I11
tp1555
(lp1556
I17
as(I7
I5
I16
tp1557
(lp1558
I13
as(I9
I8
I12
tp1559
(lp1560
I21
as(I13
I7
I24
tp1561
(lp1562
I2
as(I6
I12
I5
tp1563
(lp1564
I19
as(I14
I6
I8
tp1565
(lp1566
I6
aI21
as(I16
I25
I16
tp1567
(lp1568
I1
aI2
aI13
as(I4
I18
I16
tp1569
(lp1570
I1
as(I18
I20
I5
tp1571
(lp1572
I20
as(I5
I4
I8
tp1573
(lp1574
I4
as(I21
I25
I23
tp1575
(lp1576
I25
as(I8
I9
I14
tp1577
(lp1578
I9
as(I20
I17
I16
tp1579
(lp1580
I24
as(I12
I6
I25
tp1581
(lp1582
I9
aI23
as(I15
I13
I2
tp1583
(lp1584
I16
aI24
as(I2
I11
I24
tp1585
(lp1586
I3
as(I1
I11
I12
tp1587
(lp1588
I25
as(I3
I2
I24
tp1589
(lp1590
I2
aI16
as(I20
I18
I19
tp1591
(lp1592
I12
aI14
as(I13
I4
I2
tp1593
(lp1594
I4
aI7
as(I12
I8
I14
tp1595
(lp1596
I9
as(I20
I18
I1
tp1597
(lp1598
I18
as(I15
I16
I22
tp1599
(lp1600
I5
as(I11
I6
I7
tp1601
(lp1602
I15
aI17
as(I25
I16
I7
tp1603
(lp1604
I2
as(I18
I1
I18
tp1605
(lp1606
I1
aI3
aI11
aI14
as(I10
I24
I14
tp1607
(lp1608
I18
aI19
as(I13
I20
I16
tp1609
(lp1610
I2
aI24
as(I11
I2
I18
tp1611
(lp1612
I1
aI3
as(I5
I7
I4
tp1613
(lp1614
I17
as(I10
I20
I23
tp1615
(lp1616
I12
aI22
as(I25
I12
I10
tp1617
(lp1618
I23
as(I7
I9
I8
tp1619
(lp1620
I9
as(I18
I4
I11
tp1621
(lp1622
I7
aI17
as(I9
I7
I22
tp1623
(lp1624
I15
as(I25
I12
I23
tp1625
(lp1626
I12
aI22
as(I7
I13
I5
tp1627
(lp1628
I13
as(I3
I2
I4
tp1629
(lp1630
I2
as(I4
I18
I24
tp1631
(lp1632
I3
as(I5
I7
I20
tp1633
(lp1634
I13
aI24
as(I11
I1
I16
tp1635
(lp1636
I1
as(I25
I21
I11
tp1637
(lp1638
I18
as(I19
I24
I13
tp1639
(lp1640
I16
aI20
as(I20
I17
I24
tp1641
(lp1642
I2
aI3
as(I21
I22
I19
tp1643
(lp1644
I5
as(I6
I17
I2
tp1645
(lp1646
I7
as(I3
I19
I5
tp1647
(lp1648
I19
as(I5
I2
I15
tp1649
(lp1650
I4
as(I5
I7
I24
tp1651
(lp1652
I2
as(I4
I13
I20
tp1653
(lp1654
I13
as(I9
I22
I19
tp1655
(lp1656
I5
as(I10
I4
I13
tp1657
(lp1658
I15
as(I17
I6
I15
tp1659
(lp1660
I22
as(I22
I21
I6
tp1661
(lp1662
I3
aI8
aI21
as(I22
I9
I4
tp1663
(lp1664
I8
as(I14
I6
I3
tp1665
(lp1666
I6
as(I18
I1
I10
tp1667
(lp1668
I1
as(I1
I10
I11
tp1669
(lp1670
I25
as(I5
I4
I17
tp1671
(lp1672
I4
as(I18
I4
I3
tp1673
(lp1674
I6
aI17
as(I18
I1
I21
tp1675
(lp1676
I1
as(I16
I21
I1
tp1677
(lp1678
I10
aI21
as(I6
I14
I8
tp1679
(lp1680
I9
as(I16
I12
I19
tp1681
(lp1682
I12
as(I24
I3
I21
tp1683
(lp1684
I6
as(I2
I11
I1
tp1685
(lp1686
I18
as(I4
I10
I4
tp1687
(lp1688
I2
aI8
aI15
as(I24
I10
I3
tp1689
(lp1690
I6
aI18
as(I10
I24
I20
tp1691
(lp1692
I24
as(I14
I19
I8
tp1693
(lp1694
I21
as(I15
I8
I3
tp1695
(lp1696
I6
as(I12
I8
I21
tp1697
(lp1698
I6
aI8
as(I19
I24
I5
tp1699
(lp1700
I13
aI20
as(I10
I24
I2
tp1701
(lp1702
I24
as(I9
I8
I23
tp1703
(lp1704
I12
as(I19
I14
I12
tp1705
(lp1706
I21
aI23
aI25
as(I12
I6
I9
tp1707
(lp1708
I8
as(I10
I1
I8
tp1709
(lp1710
I21
as(I21
I16
I3
tp1711
(lp1712
I24
as(I3
I19
I13
tp1713
(lp1714
I20
as(I3
I2
I8
tp1715
(lp1716
I4
as(I8
I12
I19
tp1717
(lp1718
I12
as(I7
I9
I23
tp1719
(lp1720
I10
as(I17
I6
I7
tp1721
(lp1722
I15
as(I7
I5
I22
tp1723
(lp1724
I5
as(I17
I8
I18
tp1725
(lp1726
I14
as(I6
I12
I6
tp1727
(lp1728
I3
aI8
aI21
aI22
as(I22
I9
I12
tp1729
(lp1730
I25
as(I16
I25
I1
tp1731
(lp1732
I10
aI18
aI21
as(I4
I18
I3
tp1733
(lp1734
I18
as(I1
I18
I12
tp1735
(lp1736
I25
as(I17
I15
I3
tp1737
(lp1738
I6
as(I25
I21
I18
tp1739
(lp1740
I1
as(I21
I25
I22
tp1741
(lp1742
I23
as(I9
I7
I6
tp1743
(lp1744
I3
as(I9
I8
I18
tp1745
(lp1746
I1
as(I17
I20
I24
tp1747
(lp1748
I16
aI20
as(I19
I3
I12
tp1749
(lp1750
I21
as(I5
I2
I16
tp1751
(lp1752
I2
aI24
as(I5
I7
I13
tp1753
(lp1754
I15
aI16
as(I9
I22
I4
tp1755
(lp1756
I15
as(I12
I25
I23
tp1757
(lp1758
I10
aI25
as(I15
I8
I16
tp1759
(lp1760
I2
as(I6
I12
I9
tp1761
(lp1762
I25
as(I5
I7
I5
tp1763
(lp1764
I13
aI20
aI22
as(I6
I17
I18
tp1765
(lp1766
I11
as(I3
I19
I21
tp1767
(lp1768
I12
as(I14
I5
I12
tp1769
(lp1770
I19
aI23
as(I16
I21
I8
tp1771
(lp1772
I21
as(I16
I15
I7
tp1773
(lp1774
I15
as(I24
I10
I16
tp1775
(lp1776
I1
as(I6
I14
I23
tp1777
(lp1778
I10
as(I7
I5
I2
tp1779
(lp1780
I16
aI24
as(I4
I5
I2
tp1781
(lp1782
I16
aI24
as(I16
I25
I9
tp1783
(lp1784
I25
as(I24
I3
I2
tp1785
(lp1786
I4
aI7
as(I11
I6
I17
tp1787
(lp1788
I3
aI4
as(I4
I18
I11
tp1789
(lp1790
I18
as(I25
I12
I18
tp1791
(lp1792
I14
as(I12
I16
I24
tp1793
(lp1794
I16
as(I17
I15
I11
tp1795
(lp1796
I7
aI25
as(I4
I13
I24
tp1797
(lp1798
I16
aI20
as(I9
I7
I14
tp1799
(lp1800
I18
as(I8
I15
I7
tp1801
(lp1802
I15
as(I20
I13
I24
tp1803
(lp1804
I2
aI16
as(I17
I20
I16
tp1805
(lp1806
I13
as(I2
I11
I17
tp1807
(lp1808
I7
aI11
as(I5
I2
I24
tp1809
(lp1810
I2
aI16
as(I3
I2
I17
tp1811
(lp1812
I4
aI7
aI11
as(I24
I10
I19
tp1813
(lp1814
I14
as(I9
I22
I12
tp1815
(lp1816
I23
as(I2
I3
I4
tp1817
(lp1818
I8
aI17
as(I11
I6
I12
tp1819
(lp1820
I21
as(I22
I21
I23
tp1821
(lp1822
I10
aI12
aI25
as(I6
I14
I12
tp1823
(lp1824
I19
as(I15
I17
I15
tp1825
(lp1826
I4
aI7
aI22
as(I12
I25
I5
tp1827
(lp1828
I22
as(I3
I24
I7
tp1829
(lp1830
I2
as(I24
I19
I20
tp1831
(lp1832
I5
aI13
aI19
as(I7
I9
I7
tp1833
(lp1834
I2
aI11
aI15
aI17
as(I18
I4
I18
tp1835
(lp1836
I1
aI3
aI11
aI14
as(I17
I8
I2
tp1837
(lp1838
I4
as(I2
I7
I15
tp1839
(lp1840
I7
as(I16
I21
I18
tp1841
(lp1842
I1
as(I8
I17
I22
tp1843
(lp1844
I15
as(I15
I8
I9
tp1845
(lp1846
I8
as(I7
I2
I11
tp1847
(lp1848
I17
aI18
as(I21
I25
I21
tp1849
(lp1850
I1
aI6
aI8
aI12
as(I14
I19
I25
tp1851
(lp1852
I12
aI23
as(I11
I1
I23
tp1853
(lp1854
I10
as(I8
I9
I18
tp1855
(lp1856
I14
as(I10
I20
I13
tp1857
(lp1858
I20
as(I4
I13
I17
tp1859
(lp1860
I7
as(I6
I17
I11
tp1861
(lp1862
I17
as(I16
I12
I11
tp1863
(lp1864
I25
as(I10
I1
I25
tp1865
(lp1866
I11
as(I22
I11
I6
tp1867
(lp1868
I3
as(I4
I13
I5
tp1869
(lp1870
I13
as(I5
I14
I18
tp1871
(lp1872
I14
as(I14
I5
I19
tp1873
(lp1874
I5
aI12
aI20
as(I19
I14
I20
tp1875
(lp1876
I24
as(I22
I21
I15
tp1877
(lp1878
I4
as(I18
I1
I19
tp1879
(lp1880
I12
as(I10
I24
I9
tp1881
(lp1882
I14
as(I22
I11
I3
tp1883
(lp1884
I17
aI18
as(I10
I20
I22
tp1885
(lp1886
I5
as(I25
I12
I11
tp1887
(lp1888
I18
as(I7
I9
I15
tp1889
(lp1890
I4
as(I3
I24
I17
tp1891
(lp1892
I4
aI7
as(I4
I10
I2
tp1893
(lp1894
I16
aI24
as(I13
I7
I15
tp1895
(lp1896
I4
aI7
as(I5
I14
I25
tp1897
(lp1898
I9
as(I16
I21
I10
tp1899
(lp1900
I23
as(I7
I13
I4
tp1901
(lp1902
I15
as(I24
I3
I18
tp1903
(lp1904
I3
as(I22
I11
I18
tp1905
(lp1906
I11
as(I20
I18
I20
tp1907
(lp1908
I5
aI13
aI19
aI24
as(I20
I10
I23
tp1909
(lp1910
I10
as(I20
I13
I22
tp1911
(lp1912
I15
as(I2
I5
I2
tp1913
(lp1914
I4
aI16
aI24
as(I25
I21
I10
tp1915
(lp1916
I1
as(I19
I24
I14
tp1917
(lp1918
I18
as(I6
I17
I3
tp1919
(lp1920
I17
aI18
as(I21
I16
I24
tp1921
(lp1922
I16
as(I1
I11
I3
tp1923
(lp1924
I17
as(I6
I11
I3
tp1925
(lp1926
I17
aI18
as(I8
I17
I6
tp1927
(lp1928
I3
aI22
as(I17
I6
I8
tp1929
(lp1930
I6
aI21
as(I16
I15
I20
tp1931
(lp1932
I13
as(I22
I9
I5
tp1933
(lp1934
I19
as(I25
I16
I12
tp1935
(lp1936
I21
aI23
as(I18
I1
I11
tp1937
(lp1938
I25
as(I1
I10
I12
tp1939
(lp1940
I23
as(I4
I5
I19
tp1941
(lp1942
I5
as(I11
I2
I11
tp1943
(lp1944
I7
aI17
aI18
as(I1
I18
I21
tp1945
(lp1946
I6
aI12
as(I5
I4
I22
tp1947
(lp1948
I6
aI15
as(I18
I4
I2
tp1949
(lp1950
I4
as(I16
I21
I2
tp1951
(lp1952
I4
as(I21
I16
I15
tp1953
(lp1954
I13
as(I16
I12
I18
tp1955
(lp1956
I11
as(I2
I11
I2
tp1957
(lp1958
I4
aI7
aI16
aI24
as(I24
I10
I2
tp1959
(lp1960
I4
aI16
as(I13
I4
I24
tp1961
(lp1962
I2
as(I14
I19
I9
tp1963
(lp1964
I8
aI25
as(I11
I1
I7
tp1965
(lp1966
I2
as(I5
I7
I22
tp1967
(lp1968
I6
aI15
as(I12
I6
I8
tp1969
(lp1970
I6
as(I10
I1
I9
tp1971
(lp1972
I8
aI14
aI25
as(I22
I11
I22
tp1973
(lp1974
I6
aI15
aI23
as(I3
I19
I12
tp1975
(lp1976
I19
as(I5
I14
I13
tp1977
(lp1978
I16
aI20
as(I3
I24
I8
tp1979
(lp1980
I4
as(I8
I12
I23
tp1981
(lp1982
I12
as(I15
I16
I7
tp1983
(lp1984
I2
as(I13
I7
I22
tp1985
(lp1986
I15
as(I15
I8
I4
tp1987
(lp1988
I8
aI17
as(I18
I1
I3
tp1989
(lp1990
I6
aI24
as(I16
I25
I2
tp1991
(lp1992
I4
aI7
as(I11
I2
I3
tp1993
(lp1994
I24
as(I4
I18
I2
tp1995
(lp1996
I16
aI24
as(I24
I19
I12
tp1997
(lp1998
I19
as(I4
I10
I9
tp1999
(lp2000
I10
aI14
as(I20
I10
I14
tp2001
(lp2002
I9
aI10
as(I17
I15
I2
tp2003
(lp2004
I4
aI7
as(I4
I10
I21
tp2005
(lp2006
I1
aI12
as(I6
I11
I1
tp2007
(lp2008
I18
as(I7
I13
I20
tp2009
(lp2010
I13
as(I20
I18
I24
tp2011
(lp2012
I3
aI16
as(I4
I13
I22
tp2013
(lp2014
I5
as(I13
I4
I16
tp2015
(lp2016
I2
aI24
as(I9
I22
I5
tp2017
(lp2018
I22
as(I4
I13
I4
tp2019
(lp2020
I2
aI15
aI17
as(I14
I6
I14
tp2021
(lp2022
I9
aI10
aI18
aI19
as(I10
I4
I23
tp2023
(lp2024
I22
aI25
as(I6
I12
I8
tp2025
(lp2026
I9
aI21
as(I21
I22
I4
tp2027
(lp2028
I15
as(I11
I6
I21
tp2029
(lp2030
I6
as(I25
I16
I21
tp2031
(lp2032
I1
as(I21
I16
I8
tp2033
(lp2034
I4
aI9
as(I3
I19
I20
tp2035
(lp2036
I5
aI19
as(I8
I12
I10
tp2037
(lp2038
I23
as(I10
I20
I9
tp2039
(lp2040
I14
as(I11
I22
I3
tp2041
(lp2042
I6
as(I15
I16
I15
tp2043
(lp2044
I4
aI7
aI13
aI22
as(I16
I15
I4
tp2045
(lp2046
I15
aI17
as(I22
I9
I21
tp2047
(lp2048
I8
as(I17
I8
I17
tp2049
(lp2050
I3
aI4
aI7
aI11
as(I6
I14
I22
tp2051
(lp2052
I5
aI23
as(I16
I25
I10
tp2053
(lp2054
I9
aI23
as(I10
I24
I3
tp2055
(lp2056
I24
as(I21
I16
I21
tp2057
(lp2058
I1
aI6
aI8
aI12
as(I18
I20
I15
tp2059
(lp2060
I13
as(I25
I12
I19
tp2061
(lp2062
I12
as(I5
I4
I6
tp2063
(lp2064
I8
as(I14
I19
I18
tp2065
(lp2066
I11
as(I8
I9
I8
tp2067
(lp2068
I4
aI6
aI9
aI21
as(I1
I10
I23
tp2069
(lp2070
I10
as(I12
I16
I22
tp2071
(lp2072
I5
as(I5
I2
I5
tp2073
(lp2074
I13
aI19
aI20
aI22
as(I8
I15
I4
tp2075
(lp2076
I2
aI15
aI17
as(I9
I8
I11
tp2077
(lp2078
I17
as(I17
I20
I17
tp2079
(lp2080
I3
aI4
aI7
as(I2
I11
I18
tp2081
(lp2082
I11
as(I1
I11
I18
tp2083
(lp2084
I3
aI11
as(I24
I10
I18
tp2085
(lp2086
I1
aI14
as(I17
I6
I25
tp2087
(lp2088
I12
as(I21
I22
I12
tp2089
(lp2090
I19
aI23
aI25
as(I10
I24
I10
tp2091
(lp2092
I1
aI9
aI14
as(I18
I1
I24
tp2093
(lp2094
I16
as(I7
I5
I7
tp2095
(lp2096
I2
aI11
aI15
as(I4
I10
I14
tp2097
(lp2098
I10
as(I11
I2
I24
tp2099
(lp2100
I2
as(I7
I2
I7
tp2101
(lp2102
I2
aI11
aI15
aI17
as(I24
I19
I21
tp2103
(lp2104
I12
as(I18
I4
I21
tp2105
(lp2106
I8
as(I17
I8
I3
tp2107
(lp2108
I6
aI18
as(I12
I6
I1
tp2109
(lp2110
I18
as.