(dp0
(I0
I2
I0
tp1
(lp2
I1
aI2
as(I2
I1
I0
tp3
(lp4
I1
as(I2
I1
I2
tp5
(lp6
I0
aI1
as(I1
I2
I1
tp7
(lp8
I0
aI2
as(I0
I1
I2
tp9
(lp10
I1
as(I2
I0
I2
tp11
(lp12
I0
aI1
as(I1
I0
I2
tp13
(lp14
I0
as(I1
I0
I1
tp15
(lp16
I0
aI2
as(I0
I1
I0
tp17
(lp18
I1
aI2
as(I2
I0
I1
tp19
(lp20
I0
as(I0
I2
I1
tp21
(lp22
I2
as(I1
I2
I0
tp23
(lp24
I2
as.