(dp0
(I18
I11
I6
tp1
(lp2
I4
aI24
as(I10
I18
I10
tp3
(lp4
I7
aI8
aI9
aI22
as(I17
I20
I14
tp5
(lp6
I3
aI4
aI24
as(I6
I7
I19
tp7
(lp8
I7
as(I5
I4
I14
tp9
(lp10
I4
as(I17
I24
I17
tp11
(lp12
I6
aI14
aI15
aI16
as(I4
I25
I6
tp13
(lp14
I17
aI25
as(I13
I23
I1
tp15
(lp16
I7
as(I11
I16
I18
tp17
(lp18
I12
as(I20
I17
I18
tp19
(lp20
I24
as(I2
I25
I3
tp21
(lp22
I23
as(I25
I4
I5
tp23
(lp24
I20
as(I8
I25
I18
tp25
(lp26
I12
aI24
as(I19
I8
I25
tp27
(lp28
I12
as(I3
I25
I15
tp29
(lp30
I25
as(I13
I15
I25
tp31
(lp32
I15
as(I15
I6
I15
tp33
(lp34
I1
aI17
aI25
as(I12
I22
I13
tp35
(lp36
I22
as(I14
I12
I8
tp37
(lp38
I12
as(I12
I7
I8
tp39
(lp40
I10
as(I23
I22
I19
tp41
(lp42
I13
as(I5
I17
I5
tp43
(lp44
I1
aI12
aI16
aI20
as(I16
I5
I25
tp45
(lp46
I12
aI15
as(I8
I13
I22
tp47
(lp48
I13
aI21
as(I24
I1
I24
tp49
(lp50
I6
aI14
aI18
as(I21
I3
I14
tp51
(lp52
I3
as(I4
I24
I9
tp53
(lp54
I11
aI18
as(I7
I6
I10
tp55
(lp56
I9
as(I24
I1
I7
tp57
(lp58
I1
as(I1
I15
I19
tp59
(lp60
I15
as(I11
I18
I6
tp61
(lp62
I25
as(I23
I11
I20
tp63
(lp64
I4
aI18
as(I21
I3
I11
tp65
(lp66
I24
as(I5
I21
I23
tp67
(lp68
I3
as(I17
I24
I25
tp69
(lp70
I6
aI12
as(I14
I4
I11
tp71
(lp72
I9
as(I17
I5
I17
tp73
(lp74
I6
aI14
aI15
aI16
as(I12
I3
I23
tp75
(lp76
I3
as(I25
I2
I1
tp77
(lp78
I2
aI7
as(I23
I14
I18
tp79
(lp80
I24
as(I1
I13
I2
tp81
(lp82
I3
aI13
aI19
as(I13
I15
I17
tp83
(lp84
I15
as(I11
I23
I24
tp85
(lp86
I14
aI18
as(I13
I8
I7
tp87
(lp88
I10
as(I5
I16
I7
tp89
(lp90
I23
as(I8
I6
I10
tp91
(lp92
I9
as(I16
I5
I17
tp93
(lp94
I15
as(I4
I5
I20
tp95
(lp96
I5
aI18
aI23
as(I24
I2
I8
tp97
(lp98
I21
as(I17
I21
I13
tp99
(lp100
I21
as(I21
I5
I22
tp101
(lp102
I13
as(I5
I4
I23
tp103
(lp104
I20
as(I17
I5
I4
tp105
(lp106
I20
as(I16
I2
I15
tp107
(lp108
I1
aI19
as(I25
I4
I16
tp109
(lp110
I5
as(I7
I6
I19
tp111
(lp112
I15
as(I24
I2
I11
tp113
(lp114
I8
aI22
as(I21
I3
I19
tp115
(lp116
I2
aI7
as(I12
I3
I18
tp117
(lp118
I20
aI24
as(I8
I25
I11
tp119
(lp120
I9
aI24
as(I9
I6
I11
tp121
(lp122
I8
aI24
as(I13
I23
I21
tp123
(lp124
I3
as(I21
I17
I13
tp125
(lp126
I2
aI19
as(I1
I24
I14
tp127
(lp128
I24
as(I16
I9
I17
tp129
(lp130
I6
as(I2
I16
I5
tp131
(lp132
I16
as(I20
I19
I25
tp133
(lp134
I15
as(I15
I1
I5
tp135
(lp136
I1
as(I7
I20
I10
tp137
(lp138
I9
as(I23
I22
I3
tp139
(lp140
I2
aI14
aI21
as(I22
I9
I18
tp141
(lp142
I9
as(I23
I11
I18
tp143
(lp144
I9
as(I14
I23
I24
tp145
(lp146
I18
as(I2
I1
I13
tp147
(lp148
I19
aI22
as(I18
I10
I9
tp149
(lp150
I10
aI11
as(I9
I10
I9
tp151
(lp152
I4
aI10
aI11
aI18
as(I17
I24
I6
tp153
(lp154
I4
aI24
aI25
as(I9
I6
I20
tp155
(lp156
I4
as(I12
I14
I6
tp157
(lp158
I17
as(I25
I8
I15
tp159
(lp160
I19
as(I11
I18
I22
tp161
(lp162
I10
as(I24
I4
I9
tp163
(lp164
I4
as(I24
I17
I6
tp165
(lp166
I4
aI17
aI25
as(I6
I7
I15
tp167
(lp168
I1
aI19
as(I2
I25
I16
tp169
(lp170
I25
as(I2
I24
I8
tp171
(lp172
I11
as(I12
I3
I10
tp173
(lp174
I22
as(I19
I8
I10
tp175
(lp176
I8
as(I13
I15
I8
tp177
(lp178
I12
as(I15
I7
I20
tp179
(lp180
I23
as(I12
I7
I25
tp181
(lp182
I15
aI16
as(I25
I2
I17
tp183
(lp184
I14
as(I4
I14
I6
tp185
(lp186
I17
aI24
aI25
as(I19
I20
I2
tp187
(lp188
I1
aI3
as(I11
I16
I12
tp189
(lp190
I5
aI25
as(I16
I9
I25
tp191
(lp192
I12
as(I21
I5
I1
tp193
(lp194
I5
as(I20
I19
I1
tp195
(lp196
I2
aI7
aI15
as(I15
I1
I13
tp197
(lp198
I2
as(I12
I22
I21
tp199
(lp200
I13
aI22
as(I14
I12
I4
tp201
(lp202
I6
aI9
as(I7
I20
I2
tp203
(lp204
I3
as(I22
I14
I2
tp205
(lp206
I3
as(I23
I13
I7
tp207
(lp208
I1
aI10
aI19
as(I14
I23
I16
tp209
(lp210
I5
aI23
as(I16
I5
I1
tp211
(lp212
I5
as(I4
I5
I4
tp213
(lp214
I6
aI9
aI14
aI20
as(I16
I11
I16
tp215
(lp216
I5
aI17
aI25
as(I24
I2
I24
tp217
(lp218
I11
aI14
aI18
as(I17
I24
I14
tp219
(lp220
I4
aI24
as(I4
I25
I15
tp221
(lp222
I25
as(I4
I24
I17
tp223
(lp224
I6
aI14
as(I3
I25
I21
tp225
(lp226
I8
as(I20
I7
I10
tp227
(lp228
I7
as(I25
I8
I7
tp229
(lp230
I10
as(I17
I21
I12
tp231
(lp232
I8
as(I24
I4
I17
tp233
(lp234
I6
aI14
as(I8
I19
I11
tp235
(lp236
I22
as(I15
I13
I7
tp237
(lp238
I1
aI19
as(I21
I17
I2
tp239
(lp240
I1
aI19
as(I12
I3
I2
tp241
(lp242
I3
as(I19
I8
I2
tp243
(lp244
I3
aI13
as(I23
I14
I3
tp245
(lp246
I14
as(I15
I6
I4
tp247
(lp248
I6
as(I7
I15
I12
tp249
(lp250
I25
as(I14
I4
I3
tp251
(lp252
I23
as(I23
I22
I24
tp253
(lp254
I11
as(I25
I2
I25
tp255
(lp256
I12
aI15
aI16
as(I19
I20
I10
tp257
(lp258
I9
as(I6
I8
I4
tp259
(lp260
I9
as(I10
I9
I18
tp261
(lp262
I9
as(I19
I10
I9
tp263
(lp264
I10
as(I3
I12
I2
tp265
(lp266
I1
as(I25
I8
I18
tp267
(lp268
I9
aI12
as(I11
I23
I22
tp269
(lp270
I10
aI21
as(I22
I14
I10
tp271
(lp272
I9
as(I12
I14
I17
tp273
(lp274
I14
as(I3
I25
I2
tp275
(lp276
I1
aI19
as(I7
I20
I4
tp277
(lp278
I20
as(I4
I5
I12
tp279
(lp280
I5
as(I16
I11
I24
tp281
(lp282
I11
as(I21
I3
I2
tp283
(lp284
I3
as(I5
I21
I14
tp285
(lp286
I3
as(I2
I1
I14
tp287
(lp288
I17
as(I13
I23
I19
tp289
(lp290
I2
aI7
as(I22
I12
I7
tp291
(lp292
I1
as(I9
I6
I4
tp293
(lp294
I6
aI14
as(I18
I10
I4
tp295
(lp296
I9
as(I7
I12
I5
tp297
(lp298
I12
as(I24
I2
I15
tp299
(lp300
I1
as(I15
I13
I15
tp301
(lp302
I1
aI17
aI19
as(I1
I24
I15
tp303
(lp304
I17
aI25
as(I17
I21
I8
tp305
(lp306
I21
as(I3
I25
I14
tp307
(lp308
I4
aI17
aI24
as(I15
I6
I12
tp309
(lp310
I18
as(I12
I22
I12
tp311
(lp312
I8
aI18
as(I12
I7
I9
tp313
(lp314
I10
as(I5
I17
I4
tp315
(lp316
I14
as(I1
I24
I12
tp317
(lp318
I18
aI25
as(I6
I9
I20
tp319
(lp320
I4
aI18
as(I6
I8
I12
tp321
(lp322
I8
as(I10
I9
I10
tp323
(lp324
I7
aI8
aI9
aI22
as(I18
I11
I25
tp325
(lp326
I6
as(I24
I2
I3
tp327
(lp328
I2
aI21
as(I24
I1
I25
tp329
(lp330
I15
as(I7
I20
I18
tp331
(lp332
I20
as(I5
I16
I23
tp333
(lp334
I16
as(I12
I14
I25
tp335
(lp336
I6
aI16
as(I14
I23
I6
tp337
(lp338
I4
as(I23
I11
I23
tp339
(lp340
I3
aI7
aI20
as(I1
I2
I1
tp341
(lp342
I2
aI5
aI7
aI15
as(I21
I17
I21
tp343
(lp344
I3
aI8
aI13
as(I5
I21
I22
tp345
(lp346
I21
as(I1
I24
I2
tp347
(lp348
I3
as(I9
I6
I12
tp349
(lp350
I25
as(I1
I15
I12
tp351
(lp352
I25
as(I7
I15
I23
tp353
(lp354
I16
as(I25
I8
I23
tp355
(lp356
I7
as(I4
I14
I9
tp357
(lp358
I11
aI18
as(I19
I20
I19
tp359
(lp360
I2
aI7
aI15
as(I25
I3
I14
tp361
(lp362
I3
as(I23
I11
I14
tp363
(lp364
I24
as(I24
I17
I15
tp365
(lp366
I17
as(I17
I20
I6
tp367
(lp368
I4
aI24
as(I12
I7
I1
tp369
(lp370
I7
as(I23
I13
I22
tp371
(lp372
I13
as(I3
I21
I3
tp373
(lp374
I2
aI14
aI21
aI23
as(I16
I5
I18
tp375
(lp376
I12
aI20
as(I14
I23
I17
tp377
(lp378
I6
aI16
as(I9
I10
I18
tp379
(lp380
I12
aI24
as(I1
I15
I17
tp381
(lp382
I15
as(I21
I5
I25
tp383
(lp384
I16
as(I5
I4
I20
tp385
(lp386
I4
aI18
as(I10
I19
I7
tp387
(lp388
I1
aI19
aI23
as(I16
I11
I8
tp389
(lp390
I11
as(I25
I3
I1
tp391
(lp392
I2
as(I2
I24
I3
tp393
(lp394
I14
aI21
aI23
as(I8
I25
I12
tp395
(lp396
I5
aI18
aI25
as(I24
I17
I16
tp397
(lp398
I17
as(I20
I17
I3
tp399
(lp400
I14
as(I15
I7
I15
tp401
(lp402
I1
aI17
aI19
aI25
as(I25
I3
I23
tp403
(lp404
I3
as(I14
I23
I20
tp405
(lp406
I23
as(I25
I4
I18
tp407
(lp408
I9
aI20
as(I16
I9
I18
tp409
(lp410
I9
as(I18
I10
I24
tp411
(lp412
I11
as(I1
I13
I21
tp413
(lp414
I13
as(I5
I17
I20
tp415
(lp416
I4
aI23
as(I1
I15
I13
tp417
(lp418
I19
as(I3
I21
I11
tp419
(lp420
I22
as(I6
I9
I4
tp421
(lp422
I9
aI20
as(I2
I1
I10
tp423
(lp424
I7
as(I8
I13
I7
tp425
(lp426
I19
as(I24
I2
I19
tp427
(lp428
I2
as(I17
I21
I4
tp429
(lp430
I14
as(I17
I20
I5
tp431
(lp432
I20
as(I13
I23
I2
tp433
(lp434
I1
aI3
aI19
as(I20
I7
I3
tp435
(lp436
I2
as(I12
I14
I9
tp437
(lp438
I4
as(I25
I8
I12
tp439
(lp440
I8
aI18
as(I10
I19
I15
tp441
(lp442
I19
as(I1
I2
I17
tp443
(lp444
I14
as(I22
I23
I13
tp445
(lp446
I2
aI19
aI21
as(I2
I25
I17
tp447
(lp448
I16
as(I2
I24
I11
tp449
(lp450
I24
as(I8
I25
I4
tp451
(lp452
I6
as(I19
I8
I11
tp453
(lp454
I8
as(I10
I19
I1
tp455
(lp456
I2
aI15
as(I13
I15
I7
tp457
(lp458
I1
aI19
as(I18
I10
I8
tp459
(lp460
I10
as(I7
I15
I7
tp461
(lp462
I1
aI10
aI19
aI23
as(I23
I14
I17
tp463
(lp464
I6
aI14
as(I19
I20
I3
tp465
(lp466
I23
as(I9
I22
I8
tp467
(lp468
I10
aI11
aI21
as(I15
I1
I12
tp469
(lp470
I5
as(I5
I21
I1
tp471
(lp472
I2
aI7
as(I7
I20
I3
tp473
(lp474
I14
aI23
as(I3
I25
I17
tp475
(lp476
I6
aI15
as(I14
I23
I14
tp477
(lp478
I3
aI4
aI17
aI24
as(I3
I21
I19
tp479
(lp480
I13
as(I6
I9
I12
tp481
(lp482
I18
as(I14
I23
I1
tp483
(lp484
I7
as(I18
I11
I24
tp485
(lp486
I6
aI11
as(I16
I11
I17
tp487
(lp488
I6
aI14
as(I15
I7
I23
tp489
(lp490
I7
as(I17
I24
I15
tp491
(lp492
I25
as(I1
I24
I3
tp493
(lp494
I14
as(I20
I17
I20
tp495
(lp496
I4
aI5
aI18
aI23
as(I9
I22
I21
tp497
(lp498
I22
as(I25
I8
I4
tp499
(lp500
I9
as(I10
I19
I23
tp501
(lp502
I3
as(I8
I19
I8
tp503
(lp504
I10
aI11
aI12
aI21
as(I4
I14
I24
tp505
(lp506
I14
as(I3
I12
I24
tp507
(lp508
I18
as(I3
I25
I23
tp509
(lp510
I16
as(I19
I8
I3
tp511
(lp512
I21
as(I15
I6
I5
tp513
(lp514
I16
as(I13
I8
I21
tp515
(lp516
I8
aI22
as(I4
I14
I23
tp517
(lp518
I3
as(I8
I6
I4
tp519
(lp520
I6
as(I11
I16
I5
tp521
(lp522
I16
as(I18
I10
I23
tp523
(lp524
I7
as(I24
I1
I18
tp525
(lp526
I12
aI20
as(I21
I5
I8
tp527
(lp528
I10
aI12
as(I22
I14
I9
tp529
(lp530
I4
as(I12
I14
I16
tp531
(lp532
I17
as(I11
I18
I12
tp533
(lp534
I5
aI18
as(I14
I23
I9
tp535
(lp536
I18
as(I16
I11
I25
tp537
(lp538
I6
aI12
as(I2
I24
I18
tp539
(lp540
I24
as(I5
I4
I12
tp541
(lp542
I18
aI25
as(I23
I22
I11
tp543
(lp544
I22
as(I20
I7
I19
tp545
(lp546
I7
as(I24
I4
I8
tp547
(lp548
I10
as(I23
I13
I23
tp549
(lp550
I3
aI7
as(I24
I4
I24
tp551
(lp552
I6
aI11
aI14
aI18
as(I15
I13
I14
tp553
(lp554
I3
as(I2
I25
I1
tp555
(lp556
I5
aI15
as(I17
I20
I23
tp557
(lp558
I20
as(I2
I16
I23
tp559
(lp560
I16
as(I20
I19
I23
tp561
(lp562
I3
aI7
as(I23
I14
I24
tp563
(lp564
I14
as(I3
I12
I3
tp565
(lp566
I2
aI14
aI21
aI23
as(I14
I12
I6
tp567
(lp568
I25
as(I8
I6
I12
tp569
(lp570
I18
aI25
as(I10
I9
I11
tp571
(lp572
I9
aI24
as(I16
I9
I10
tp573
(lp574
I9
as(I21
I5
I16
tp575
(lp576
I5
as(I19
I8
I19
tp577
(lp578
I2
aI7
aI13
aI15
as(I17
I5
I14
tp579
(lp580
I4
as(I5
I17
I16
tp581
(lp582
I17
aI25
as(I22
I14
I17
tp583
(lp584
I14
as(I14
I4
I23
tp585
(lp586
I20
as(I11
I18
I4
tp587
(lp588
I20
as(I18
I11
I8
tp589
(lp590
I11
as(I23
I11
I22
tp591
(lp592
I11
as(I17
I20
I4
tp593
(lp594
I20
as(I9
I22
I7
tp595
(lp596
I19
as(I12
I3
I24
tp597
(lp598
I14
as(I1
I24
I6
tp599
(lp600
I24
as(I4
I25
I24
tp601
(lp602
I6
as(I20
I17
I4
tp603
(lp604
I6
aI14
as(I23
I14
I15
tp605
(lp606
I17
as(I25
I2
I3
tp607
(lp608
I2
as(I24
I17
I24
tp609
(lp610
I6
aI14
aI18
as(I6
I7
I25
tp611
(lp612
I15
aI16
as(I2
I16
I15
tp613
(lp614
I17
aI25
as(I15
I1
I3
tp615
(lp616
I2
as(I19
I10
I21
tp617
(lp618
I8
aI22
as(I23
I22
I9
tp619
(lp620
I10
aI11
as(I23
I13
I21
tp621
(lp622
I13
aI22
as(I3
I21
I2
tp623
(lp624
I13
aI19
as(I14
I23
I18
tp625
(lp626
I20
as(I14
I22
I14
tp627
(lp628
I3
aI4
aI24
as(I8
I13
I8
tp629
(lp630
I10
aI11
aI21
as(I5
I17
I12
tp631
(lp632
I25
as(I17
I21
I15
tp633
(lp634
I1
aI19
as(I13
I1
I3
tp635
(lp636
I2
as(I16
I11
I9
tp637
(lp638
I11
as(I3
I12
I14
tp639
(lp640
I24
as(I2
I24
I2
tp641
(lp642
I1
aI3
aI13
as(I12
I3
I16
tp643
(lp644
I23
as(I3
I12
I25
tp645
(lp646
I12
as(I4
I25
I16
tp647
(lp648
I25
as(I22
I12
I22
tp649
(lp650
I10
aI11
aI13
aI21
as(I13
I15
I14
tp651
(lp652
I17
as(I12
I22
I10
tp653
(lp654
I9
aI22
as(I6
I7
I23
tp655
(lp656
I7
as(I19
I20
I4
tp657
(lp658
I20
as(I25
I3
I8
tp659
(lp660
I21
as(I24
I1
I3
tp661
(lp662
I2
aI23
as(I5
I16
I20
tp663
(lp664
I23
as(I20
I19
I7
tp665
(lp666
I1
aI19
as(I11
I23
I18
tp667
(lp668
I20
as(I1
I15
I23
tp669
(lp670
I16
as(I7
I20
I12
tp671
(lp672
I18
as(I13
I8
I13
tp673
(lp674
I2
aI19
aI21
aI22
as(I5
I17
I23
tp675
(lp676
I16
as(I3
I21
I10
tp677
(lp678
I22
as(I13
I1
I19
tp679
(lp680
I2
aI7
aI15
as(I19
I10
I22
tp681
(lp682
I10
aI11
as(I9
I10
I11
tp683
(lp684
I8
aI22
as(I12
I14
I18
tp685
(lp686
I9
aI20
aI24
as(I17
I24
I4
tp687
(lp688
I6
aI9
aI14
as(I9
I16
I9
tp689
(lp690
I4
aI10
aI18
as(I12
I14
I8
tp691
(lp692
I11
as(I6
I15
I4
tp693
(lp694
I14
as(I7
I12
I23
tp695
(lp696
I16
aI20
as(I11
I18
I20
tp697
(lp698
I18
as(I10
I19
I8
tp699
(lp700
I21
as(I21
I17
I4
tp701
(lp702
I6
as(I24
I1
I17
tp703
(lp704
I15
as(I12
I3
I8
tp705
(lp706
I10
aI21
as(I8
I25
I5
tp707
(lp708
I1
aI16
as(I19
I8
I12
tp709
(lp710
I8
as(I14
I12
I24
tp711
(lp712
I6
aI11
aI18
as(I24
I17
I25
tp713
(lp714
I15
aI16
as(I25
I2
I19
tp715
(lp716
I2
aI13
as(I10
I9
I24
tp717
(lp718
I18
as(I15
I7
I1
tp719
(lp720
I2
aI5
aI7
as(I21
I5
I3
tp721
(lp722
I2
aI23
as(I20
I19
I15
tp723
(lp724
I19
as(I15
I1
I19
tp725
(lp726
I2
aI7
aI13
as(I16
I9
I7
tp727
(lp728
I10
as(I17
I20
I3
tp729
(lp730
I23
as(I5
I16
I5
tp731
(lp732
I1
aI12
aI16
aI20
as(I22
I9
I24
tp733
(lp734
I18
as(I4
I5
I6
tp735
(lp736
I17
aI25
as(I2
I1
I3
tp737
(lp738
I14
aI23
as(I10
I18
I7
tp739
(lp740
I23
as(I5
I21
I8
tp741
(lp742
I10
aI21
as(I2
I24
I21
tp743
(lp744
I8
aI22
as(I5
I4
I5
tp745
(lp746
I12
aI16
aI20
as(I17
I24
I12
tp747
(lp748
I18
as(I4
I25
I9
tp749
(lp750
I18
as(I3
I25
I24
tp751
(lp752
I6
as(I9
I16
I17
tp753
(lp754
I16
as(I1
I15
I2
tp755
(lp756
I13
aI19
as(I6
I15
I12
tp757
(lp758
I5
as(I25
I8
I5
tp759
(lp760
I12
as(I22
I23
I8
tp761
(lp762
I21
as(I24
I2
I12
tp763
(lp764
I5
as(I21
I17
I12
tp765
(lp766
I25
as(I16
I2
I7
tp767
(lp768
I1
aI19
as(I11
I16
I17
tp769
(lp770
I16
as(I23
I14
I1
tp771
(lp772
I15
as(I12
I7
I23
tp773
(lp774
I7
as(I14
I12
I9
tp775
(lp776
I18
as(I6
I9
I18
tp777
(lp778
I9
aI20
as(I6
I8
I6
tp779
(lp780
I4
aI17
aI24
aI25
as(I11
I16
I6
tp781
(lp782
I17
aI25
as(I19
I10
I15
tp783
(lp784
I1
as(I5
I17
I15
tp785
(lp786
I17
as(I11
I23
I14
tp787
(lp788
I3
as(I7
I6
I17
tp789
(lp790
I6
as(I4
I5
I14
tp791
(lp792
I17
as(I23
I11
I9
tp793
(lp794
I11
as(I17
I21
I23
tp795
(lp796
I3
as(I5
I21
I16
tp797
(lp798
I23
as(I3
I25
I12
tp799
(lp800
I25
as(I22
I12
I1
tp801
(lp802
I5
as(I9
I16
I25
tp803
(lp804
I16
as(I20
I7
I16
tp805
(lp806
I23
as(I1
I13
I7
tp807
(lp808
I10
aI19
as(I7
I15
I17
tp809
(lp810
I15
as(I7
I12
I7
tp811
(lp812
I1
aI10
aI19
aI23
as(I14
I4
I18
tp813
(lp814
I9
aI20
as(I25
I3
I15
tp815
(lp816
I1
aI17
aI19
as(I23
I14
I16
tp817
(lp818
I17
aI25
as(I13
I23
I10
tp819
(lp820
I7
as(I20
I19
I20
tp821
(lp822
I5
aI18
aI23
as(I15
I6
I18
tp823
(lp824
I24
as(I12
I7
I15
tp825
(lp826
I1
aI19
as(I5
I17
I6
tp827
(lp828
I17
as(I8
I6
I15
tp829
(lp830
I17
as(I16
I5
I20
tp831
(lp832
I5
aI18
as(I6
I8
I14
tp833
(lp834
I24
as(I10
I9
I8
tp835
(lp836
I11
aI12
as(I19
I10
I7
tp837
(lp838
I10
as(I24
I2
I5
tp839
(lp840
I1
as(I1
I24
I20
tp841
(lp842
I18
as(I5
I4
I18
tp843
(lp844
I9
aI20
as(I1
I13
I10
tp845
(lp846
I22
as(I4
I24
I14
tp847
(lp848
I17
aI24
as(I7
I6
I9
tp849
(lp850
I4
as(I11
I18
I5
tp851
(lp852
I20
as(I18
I11
I9
tp853
(lp854
I10
aI11
as(I16
I11
I6
tp855
(lp856
I24
as(I21
I3
I8
tp857
(lp858
I11
as(I21
I17
I23
tp859
(lp860
I16
as(I2
I24
I5
tp861
(lp862
I12
as(I12
I3
I25
tp863
(lp864
I16
as(I3
I12
I8
tp865
(lp866
I12
as(I22
I12
I9
tp867
(lp868
I18
as(I9
I6
I14
tp869
(lp870
I17
aI24
as(I20
I17
I5
tp871
(lp872
I1
aI16
as(I7
I15
I25
tp873
(lp874
I15
as(I7
I12
I15
tp875
(lp876
I25
as(I8
I19
I25
tp877
(lp878
I15
as(I15
I13
I21
tp879
(lp880
I13
as(I6
I8
I17
tp881
(lp882
I14
as(I9
I22
I24
tp883
(lp884
I11
as(I2
I16
I14
tp885
(lp886
I17
as(I1
I13
I15
tp887
(lp888
I19
as(I15
I1
I2
tp889
(lp890
I1
as(I11
I23
I21
tp891
(lp892
I3
as(I15
I1
I16
tp893
(lp894
I5
as(I13
I8
I2
tp895
(lp896
I3
as(I5
I17
I14
tp897
(lp898
I17
as(I16
I5
I12
tp899
(lp900
I5
aI18
as(I4
I5
I23
tp901
(lp902
I16
as(I14
I22
I13
tp903
(lp904
I22
as(I9
I10
I20
tp905
(lp906
I23
as(I17
I21
I14
tp907
(lp908
I3
aI24
as(I4
I24
I6
tp909
(lp910
I17
aI24
as(I9
I16
I6
tp911
(lp912
I17
aI25
as(I22
I14
I24
tp913
(lp914
I6
aI14
as(I3
I12
I23
tp915
(lp916
I16
aI20
as(I7
I12
I16
tp917
(lp918
I25
as(I24
I4
I6
tp919
(lp920
I4
aI17
as(I16
I11
I14
tp921
(lp922
I24
as(I2
I25
I23
tp923
(lp924
I16
as(I2
I24
I13
tp925
(lp926
I21
aI22
as(I18
I10
I18
tp927
(lp928
I9
aI12
aI20
aI24
as(I4
I25
I17
tp929
(lp930
I15
aI16
as(I23
I13
I2
tp931
(lp932
I13
aI19
as(I13
I15
I13
tp933
(lp934
I2
aI19
aI21
as(I1
I15
I25
tp935
(lp936
I15
as(I7
I15
I1
tp937
(lp938
I2
aI15
as(I8
I19
I21
tp939
(lp940
I3
aI13
aI22
as(I25
I2
I12
tp941
(lp942
I5
as(I4
I14
I3
tp943
(lp944
I14
as(I19
I20
I5
tp945
(lp946
I20
as(I6
I8
I25
tp947
(lp948
I12
aI16
as(I17
I20
I15
tp949
(lp950
I1
as(I16
I9
I20
tp951
(lp952
I4
aI18
as(I23
I14
I25
tp953
(lp954
I6
as(I17
I5
I20
tp955
(lp956
I5
as(I14
I23
I2
tp957
(lp958
I1
as(I13
I8
I10
tp959
(lp960
I8
as(I18
I11
I18
tp961
(lp962
I9
aI12
aI20
aI24
as(I9
I10
I12
tp963
(lp964
I8
as(I6
I7
I17
tp965
(lp966
I15
aI16
as(I5
I21
I3
tp967
(lp968
I21
as(I11
I23
I10
tp969
(lp970
I7
as(I16
I2
I17
tp971
(lp972
I14
aI15
as(I13
I23
I3
tp973
(lp974
I23
as(I20
I7
I1
tp975
(lp976
I2
aI7
as(I12
I14
I11
tp977
(lp978
I24
as(I6
I15
I5
tp979
(lp980
I1
as(I1
I24
I1
tp981
(lp982
I2
aI5
aI15
as(I24
I4
I14
tp983
(lp984
I4
aI17
as(I1
I2
I19
tp985
(lp986
I2
aI13
as(I16
I2
I14
tp987
(lp988
I3
as(I8
I25
I6
tp989
(lp990
I25
as(I19
I8
I13
tp991
(lp992
I21
aI22
as(I25
I3
I6
tp993
(lp994
I4
aI17
as(I15
I7
I25
tp995
(lp996
I16
as(I14
I12
I14
tp997
(lp998
I3
aI4
aI17
aI24
as(I20
I7
I2
tp999
(lp1000
I1
aI19
as(I2
I1
I19
tp1001
(lp1002
I7
aI15
as(I6
I7
I6
tp1003
(lp1004
I4
aI17
aI25
as(I25
I4
I24
tp1005
(lp1006
I14
as(I10
I18
I23
tp1007
(lp1008
I20
as(I24
I1
I12
tp1009
(lp1010
I5
aI25
as(I21
I5
I2
tp1011
(lp1012
I1
as(I20
I19
I12
tp1013
(lp1014
I25
as(I17
I5
I12
tp1015
(lp1016
I5
as(I1
I2
I3
tp1017
(lp1018
I2
as(I7
I20
I5
tp1019
(lp1020
I12
aI20
as(I24
I1
I5
tp1021
(lp1022
I1
as(I11
I18
I10
tp1023
(lp1024
I9
as(I13
I1
I10
tp1025
(lp1026
I7
as(I9
I10
I4
tp1027
(lp1028
I20
as(I2
I24
I20
tp1029
(lp1030
I18
as(I1
I13
I22
tp1031
(lp1032
I13
as(I23
I11
I7
tp1033
(lp1034
I10
as(I20
I7
I9
tp1035
(lp1036
I10
as(I1
I15
I1
tp1037
(lp1038
I2
aI5
aI7
aI15
as(I22
I23
I22
tp1039
(lp1040
I10
aI11
aI13
aI21
as(I25
I3
I19
tp1041
(lp1042
I2
as(I1
I15
I7
tp1043
(lp1044
I19
aI23
as(I5
I16
I1
tp1045
(lp1046
I7
aI15
as(I21
I17
I15
tp1047
(lp1048
I17
as(I2
I25
I7
tp1049
(lp1050
I1
as(I12
I3
I1
tp1051
(lp1052
I2
as(I9
I22
I9
tp1053
(lp1054
I10
aI11
aI18
as(I2
I16
I25
tp1055
(lp1056
I16
as(I11
I23
I4
tp1057
(lp1058
I20
as(I12
I22
I9
tp1059
(lp1060
I10
aI11
as(I12
I7
I20
tp1061
(lp1062
I23
as(I13
I8
I19
tp1063
(lp1064
I7
as(I6
I8
I9
tp1065
(lp1066
I10
aI11
as(I11
I16
I7
tp1067
(lp1068
I23
as(I16
I9
I4
tp1069
(lp1070
I9
as(I21
I5
I10
tp1071
(lp1072
I7
as(I14
I22
I9
tp1073
(lp1074
I10
aI11
as(I22
I23
I11
tp1075
(lp1076
I8
as(I1
I24
I16
tp1077
(lp1078
I25
as(I14
I4
I20
tp1079
(lp1080
I4
as(I13
I1
I2
tp1081
(lp1082
I1
aI19
as(I23
I11
I8
tp1083
(lp1084
I11
as(I21
I3
I7
tp1085
(lp1086
I23
as(I17
I21
I22
tp1087
(lp1088
I21
as(I16
I2
I25
tp1089
(lp1090
I15
as(I7
I15
I16
tp1091
(lp1092
I17
aI25
as(I7
I12
I8
tp1093
(lp1094
I12
as(I14
I23
I4
tp1095
(lp1096
I9
aI20
as(I8
I19
I22
tp1097
(lp1098
I13
as(I4
I14
I18
tp1099
(lp1100
I24
as(I2
I25
I15
tp1101
(lp1102
I17
aI25
as(I24
I17
I23
tp1103
(lp1104
I16
as(I2
I16
I17
tp1105
(lp1106
I16
as(I13
I15
I21
tp1107
(lp1108
I8
as(I10
I18
I24
tp1109
(lp1110
I18
as(I12
I7
I12
tp1111
(lp1112
I5
aI8
aI18
aI25
as(I23
I22
I23
tp1113
(lp1114
I3
aI7
aI20
as(I5
I17
I1
tp1115
(lp1116
I15
as(I8
I6
I14
tp1117
(lp1118
I17
as(I4
I14
I11
tp1119
(lp1120
I24
as(I4
I5
I16
tp1121
(lp1122
I5
as(I14
I22
I4
tp1123
(lp1124
I9
as(I16
I9
I12
tp1125
(lp1126
I18
as(I3
I25
I1
tp1127
(lp1128
I15
as(I5
I16
I18
tp1129
(lp1130
I20
as(I16
I2
I16
tp1131
(lp1132
I5
aI17
aI23
aI25
as(I17
I21
I25
tp1133
(lp1134
I12
as(I3
I12
I20
tp1135
(lp1136
I5
aI18
as(I18
I11
I10
tp1137
(lp1138
I8
aI22
as(I10
I18
I22
tp1139
(lp1140
I11
as(I3
I12
I16
tp1141
(lp1142
I5
aI25
as(I2
I24
I4
tp1143
(lp1144
I6
as(I12
I3
I22
tp1145
(lp1146
I21
as(I10
I18
I8
tp1147
(lp1148
I11
aI12
as(I22
I12
I8
tp1149
(lp1150
I12
as(I25
I3
I16
tp1151
(lp1152
I17
aI23
as(I20
I17
I6
tp1153
(lp1154
I17
as(I25
I2
I5
tp1155
(lp1156
I1
as(I6
I8
I16
tp1157
(lp1158
I5
as(I5
I17
I25
tp1159
(lp1160
I6
aI15
aI16
as(I25
I4
I9
tp1161
(lp1162
I4
as(I19
I8
I21
tp1163
(lp1164
I8
as(I3
I25
I19
tp1165
(lp1166
I15
as(I11
I23
I20
tp1167
(lp1168
I23
as(I13
I8
I3
tp1169
(lp1170
I21
as(I23
I13
I19
tp1171
(lp1172
I2
aI13
as(I25
I3
I4
tp1173
(lp1174
I14
as(I13
I1
I21
tp1175
(lp1176
I3
as(I11
I16
I23
tp1177
(lp1178
I16
as(I8
I13
I10
tp1179
(lp1180
I7
aI22
as(I9
I10
I21
tp1181
(lp1182
I8
aI22
as(I11
I16
I9
tp1183
(lp1184
I10
as(I13
I23
I7
tp1185
(lp1186
I23
as(I17
I20
I1
tp1187
(lp1188
I5
as(I4
I24
I5
tp1189
(lp1190
I12
as(I9
I16
I7
tp1191
(lp1192
I23
as(I10
I9
I21
tp1193
(lp1194
I8
as(I25
I8
I11
tp1195
(lp1196
I8
as(I24
I1
I20
tp1197
(lp1198
I5
as(I10
I19
I2
tp1199
(lp1200
I19
as(I23
I11
I24
tp1201
(lp1202
I11
as(I21
I3
I23
tp1203
(lp1204
I3
as(I2
I24
I12
tp1205
(lp1206
I18
as(I12
I3
I14
tp1207
(lp1208
I3
as(I8
I25
I15
tp1209
(lp1210
I25
as(I4
I25
I18
tp1211
(lp1212
I12
as(I23
I22
I14
tp1213
(lp1214
I24
as(I13
I15
I12
tp1215
(lp1216
I25
as(I20
I17
I14
tp1217
(lp1218
I17
as(I15
I7
I16
tp1219
(lp1220
I23
as(I25
I2
I13
tp1221
(lp1222
I2
as(I8
I6
I17
tp1223
(lp1224
I6
as(I8
I19
I7
tp1225
(lp1226
I19
as(I6
I8
I24
tp1227
(lp1228
I11
aI18
as(I11
I16
I8
tp1229
(lp1230
I12
aI21
as(I25
I4
I17
tp1231
(lp1232
I6
aI14
as(I17
I20
I18
tp1233
(lp1234
I20
as(I2
I16
I1
tp1235
(lp1236
I5
aI7
aI15
as(I20
I19
I5
tp1237
(lp1238
I1
aI12
as(I17
I5
I23
tp1239
(lp1240
I20
as(I7
I20
I14
tp1241
(lp1242
I4
as(I13
I8
I11
tp1243
(lp1244
I8
as(I22
I9
I22
tp1245
(lp1246
I10
aI11
aI21
as(I6
I9
I11
tp1247
(lp1248
I9
as(I13
I1
I13
tp1249
(lp1250
I2
aI19
aI21
aI22
as(I8
I13
I2
tp1251
(lp1252
I13
as(I17
I21
I1
tp1253
(lp1254
I2
as(I5
I21
I2
tp1255
(lp1256
I3
aI13
as(I22
I23
I7
tp1257
(lp1258
I23
as(I14
I4
I16
tp1259
(lp1260
I5
as(I6
I15
I6
tp1261
(lp1262
I4
aI17
aI24
aI25
as(I7
I12
I25
tp1263
(lp1264
I12
as(I3
I12
I10
tp1265
(lp1266
I8
as(I10
I19
I10
tp1267
(lp1268
I7
aI8
aI22
as(I24
I2
I13
tp1269
(lp1270
I2
aI19
as(I1
I2
I20
tp1271
(lp1272
I23
as(I21
I17
I6
tp1273
(lp1274
I17
as(I16
I2
I1
tp1275
(lp1276
I2
as(I22
I12
I24
tp1277
(lp1278
I18
as(I7
I6
I25
tp1279
(lp1280
I6
as(I7
I15
I8
tp1281
(lp1282
I12
as(I6
I7
I9
tp1283
(lp1284
I10
as(I8
I6
I25
tp1285
(lp1286
I6
aI15
as(I7
I6
I20
tp1287
(lp1288
I4
as(I10
I9
I22
tp1289
(lp1290
I11
aI21
as(I25
I4
I25
tp1291
(lp1292
I6
aI12
aI15
aI16
as(I24
I2
I17
tp1293
(lp1294
I15
as(I15
I1
I17
tp1295
(lp1296
I14
aI16
as(I22
I23
I21
tp1297
(lp1298
I3
aI13
as(I22
I14
I6
tp1299
(lp1300
I17
as(I23
I13
I3
tp1301
(lp1302
I2
aI21
as(I11
I18
I11
tp1303
(lp1304
I8
aI9
aI22
aI24
as(I16
I11
I20
tp1305
(lp1306
I4
as(I11
I16
I25
tp1307
(lp1308
I16
as(I5
I21
I10
tp1309
(lp1310
I22
as(I2
I24
I23
tp1311
(lp1312
I20
as(I17
I24
I18
tp1313
(lp1314
I24
as(I9
I16
I23
tp1315
(lp1316
I16
as(I9
I6
I24
tp1317
(lp1318
I6
as(I20
I17
I23
tp1319
(lp1320
I3
aI16
as(I6
I15
I14
tp1321
(lp1322
I17
as(I7
I12
I1
tp1323
(lp1324
I5
aI15
as(I7
I6
I1
tp1325
(lp1326
I15
as(I22
I23
I10
tp1327
(lp1328
I7
aI8
as(I18
I11
I12
tp1329
(lp1330
I8
aI25
as(I15
I13
I3
tp1331
(lp1332
I2
aI21
as(I21
I17
I14
tp1333
(lp1334
I4
aI17
aI24
as(I25
I4
I6
tp1335
(lp1336
I4
aI17
aI24
as(I23
I11
I10
tp1337
(lp1338
I8
aI9
aI22
as(I9
I22
I10
tp1339
(lp1340
I7
aI8
aI22
as(I23
I14
I7
tp1341
(lp1342
I1
as(I24
I17
I3
tp1343
(lp1344
I23
as(I11
I23
I7
tp1345
(lp1346
I23
as(I12
I22
I8
tp1347
(lp1348
I10
aI11
aI21
as(I14
I12
I11
tp1349
(lp1350
I8
as(I6
I7
I1
tp1351
(lp1352
I7
as(I24
I17
I14
tp1353
(lp1354
I3
aI4
aI17
as(I14
I22
I3
tp1355
(lp1356
I2
aI21
as(I19
I10
I13
tp1357
(lp1358
I21
aI22
as(I22
I9
I10
tp1359
(lp1360
I8
aI9
as(I16
I9
I5
tp1361
(lp1362
I12
aI20
as(I21
I5
I13
tp1363
(lp1364
I2
as(I15
I1
I25
tp1365
(lp1366
I12
aI16
as(I7
I6
I23
tp1367
(lp1368
I16
aI20
as(I3
I21
I24
tp1369
(lp1370
I11
as(I24
I1
I23
tp1371
(lp1372
I7
as(I25
I3
I17
tp1373
(lp1374
I14
as(I1
I2
I13
tp1375
(lp1376
I2
as(I17
I21
I17
tp1377
(lp1378
I6
aI14
aI15
aI16
as(I5
I16
I15
tp1379
(lp1380
I17
aI25
as(I14
I4
I14
tp1381
(lp1382
I3
aI4
aI17
aI24
as(I7
I15
I19
tp1383
(lp1384
I2
aI13
aI15
as(I7
I12
I9
tp1385
(lp1386
I18
as(I3
I25
I3
tp1387
(lp1388
I2
aI14
aI21
aI23
as(I22
I23
I2
tp1389
(lp1390
I3
as(I11
I23
I11
tp1391
(lp1392
I8
aI9
aI22
aI24
as(I19
I20
I23
tp1393
(lp1394
I16
aI20
as(I2
I25
I12
tp1395
(lp1396
I25
as(I25
I4
I14
tp1397
(lp1398
I4
as(I9
I22
I18
tp1399
(lp1400
I24
as(I14
I12
I21
tp1401
(lp1402
I8
as(I20
I19
I18
tp1403
(lp1404
I12
as(I15
I6
I16
tp1405
(lp1406
I17
aI25
as(I10
I19
I22
tp1407
(lp1408
I13
aI21
as(I23
I22
I20
tp1409
(lp1410
I18
as(I14
I4
I9
tp1411
(lp1412
I4
as(I8
I6
I9
tp1413
(lp1414
I4
aI18
as(I6
I9
I24
tp1415
(lp1416
I11
aI14
aI18
as(I4
I5
I17
tp1417
(lp1418
I16
as(I14
I22
I11
tp1419
(lp1420
I9
aI22
as(I8
I13
I19
tp1421
(lp1422
I13
as(I4
I14
I25
tp1423
(lp1424
I15
as(I21
I5
I21
tp1425
(lp1426
I3
aI8
aI13
aI22
as(I5
I4
I16
tp1427
(lp1428
I17
aI23
aI25
as(I14
I4
I5
tp1429
(lp1430
I20
as(I4
I24
I12
tp1431
(lp1432
I18
as(I22
I14
I22
tp1433
(lp1434
I10
aI11
aI13
aI21
as(I8
I19
I3
tp1435
(lp1436
I2
as(I2
I1
I17
tp1437
(lp1438
I15
as(I16
I11
I4
tp1439
(lp1440
I9
as(I1
I2
I5
tp1441
(lp1442
I20
as(I11
I16
I21
tp1443
(lp1444
I3
as(I24
I17
I18
tp1445
(lp1446
I12
as(I8
I25
I8
tp1447
(lp1448
I10
aI11
aI12
as(I22
I12
I11
tp1449
(lp1450
I8
aI9
aI24
as(I16
I2
I5
tp1451
(lp1452
I1
as(I9
I6
I8
tp1453
(lp1454
I12
as(I1
I15
I16
tp1455
(lp1456
I17
aI25
as(I20
I7
I18
tp1457
(lp1458
I9
aI12
as(I15
I7
I17
tp1459
(lp1460
I16
as(I15
I13
I19
tp1461
(lp1462
I2
aI7
aI13
as(I25
I3
I21
tp1463
(lp1464
I3
as(I19
I8
I22
tp1465
(lp1466
I10
aI11
aI21
as(I23
I14
I23
tp1467
(lp1468
I3
aI7
aI16
aI20
as(I3
I25
I6
tp1469
(lp1470
I25
as(I15
I6
I24
tp1471
(lp1472
I6
as(I12
I22
I24
tp1473
(lp1474
I11
as(I12
I7
I5
tp1475
(lp1476
I1
aI16
aI20
as(I3
I21
I7
tp1477
(lp1478
I10
aI19
as(I1
I24
I5
tp1479
(lp1480
I12
aI16
aI20
as(I9
I22
I11
tp1481
(lp1482
I8
aI22
as(I4
I5
I25
tp1483
(lp1484
I12
aI16
as(I18
I11
I20
tp1485
(lp1486
I4
as(I8
I13
I11
tp1487
(lp1488
I22
as(I9
I10
I22
tp1489
(lp1490
I10
aI21
as(I6
I7
I16
tp1491
(lp1492
I23
as(I12
I14
I24
tp1493
(lp1494
I14
as(I3
I12
I22
tp1495
(lp1496
I10
as(I23
I11
I3
tp1497
(lp1498
I14
aI21
as(I11
I16
I24
tp1499
(lp1500
I6
aI14
aI18
as(I4
I24
I4
tp1501
(lp1502
I6
aI9
aI14
aI20
as(I9
I16
I4
tp1503
(lp1504
I6
aI20
as(I7
I6
I7
tp1505
(lp1506
I1
aI10
aI19
aI23
as(I12
I14
I5
tp1507
(lp1508
I16
aI20
as(I7
I12
I18
tp1509
(lp1510
I12
as(I24
I1
I2
tp1511
(lp1512
I1
as(I10
I19
I3
tp1513
(lp1514
I2
as(I16
I11
I12
tp1515
(lp1516
I8
aI18
as(I21
I3
I22
tp1517
(lp1518
I11
aI13
as(I21
I17
I25
tp1519
(lp1520
I16
as(I18
I10
I12
tp1521
(lp1522
I8
as(I20
I17
I15
tp1523
(lp1524
I17
as(I15
I7
I19
tp1525
(lp1526
I2
aI7
as(I5
I16
I25
tp1527
(lp1528
I6
aI16
as(I25
I2
I14
tp1529
(lp1530
I3
as(I24
I17
I12
tp1531
(lp1532
I25
as(I19
I20
I7
tp1533
(lp1534
I1
aI10
aI23
as(I14
I22
I18
tp1535
(lp1536
I9
as(I25
I3
I12
tp1537
(lp1538
I8
as(I24
I1
I6
tp1539
(lp1540
I17
aI25
as(I20
I19
I2
tp1541
(lp1542
I19
as(I22
I9
I11
tp1543
(lp1544
I8
aI9
aI24
as(I23
I22
I7
tp1545
(lp1546
I10
aI19
as(I23
I13
I10
tp1547
(lp1548
I22
as(I25
I8
I16
tp1549
(lp1550
I5
aI23
as(I14
I23
I5
tp1551
(lp1552
I20
as(I8
I13
I3
tp1553
(lp1554
I2
as(I5
I21
I5
tp1555
(lp1556
I1
aI12
aI16
aI20
as(I17
I24
I11
tp1557
(lp1558
I24
as(I4
I25
I12
tp1559
(lp1560
I25
as(I9
I16
I12
tp1561
(lp1562
I5
aI25
as(I9
I6
I17
tp1563
(lp1564
I6
as(I5
I16
I12
tp1565
(lp1566
I18
aI25
as(I24
I4
I10
tp1567
(lp1568
I9
as(I22
I23
I19
tp1569
(lp1570
I7
as(I3
I12
I1
tp1571
(lp1572
I5
as(I21
I17
I1
tp1573
(lp1574
I15
as(I15
I7
I3
tp1575
(lp1576
I23
as(I8
I25
I24
tp1577
(lp1578
I6
aI18
as(I19
I8
I15
tp1579
(lp1580
I25
as(I13
I15
I3
tp1581
(lp1582
I14
as(I15
I6
I1
tp1583
(lp1584
I5
as(I12
I7
I18
tp1585
(lp1586
I9
as(I16
I5
I23
tp1587
(lp1588
I7
aI20
as(I6
I7
I10
tp1589
(lp1590
I7
as(I8
I6
I24
tp1591
(lp1592
I6
aI14
as(I19
I20
I15
tp1593
(lp1594
I1
as(I10
I9
I23
tp1595
(lp1596
I20
as(I24
I1
I14
tp1597
(lp1598
I3
aI17
as(I14
I12
I17
tp1599
(lp1600
I6
aI16
as(I14
I22
I10
tp1601
(lp1602
I22
as(I7
I20
I7
tp1603
(lp1604
I1
aI10
aI23
as(I14
I4
I6
tp1605
(lp1606
I4
as(I3
I21
I23
tp1607
(lp1608
I7
as(I8
I19
I15
tp1609
(lp1610
I19
as(I11
I18
I8
tp1611
(lp1612
I10
aI12
as(I4
I5
I9
tp1613
(lp1614
I18
as(I18
I11
I4
tp1615
(lp1616
I9
as(I10
I18
I4
tp1617
(lp1618
I20
as(I18
I10
I22
tp1619
(lp1620
I10
as(I17
I21
I24
tp1621
(lp1622
I11
as(I5
I21
I13
tp1623
(lp1624
I21
as(I2
I24
I22
tp1625
(lp1626
I11
as(I13
I23
I22
tp1627
(lp1628
I10
aI21
as(I4
I25
I4
tp1629
(lp1630
I6
aI9
aI14
aI20
as(I4
I24
I20
tp1631
(lp1632
I5
aI18
as(I9
I16
I20
tp1633
(lp1634
I5
aI23
as(I9
I6
I25
tp1635
(lp1636
I6
as(I20
I17
I16
tp1637
(lp1638
I17
as(I25
I8
I24
tp1639
(lp1640
I11
aI18
as(I24
I4
I20
tp1641
(lp1642
I4
as(I8
I19
I12
tp1643
(lp1644
I25
as(I15
I13
I2
tp1645
(lp1646
I3
aI13
aI19
as(I2
I25
I5
tp1647
(lp1648
I12
aI16
as(I8
I25
I16
tp1649
(lp1650
I25
as(I19
I8
I7
tp1651
(lp1652
I10
as(I23
I14
I4
tp1653
(lp1654
I6
aI14
as(I24
I17
I4
tp1655
(lp1656
I6
aI14
as(I12
I22
I11
tp1657
(lp1658
I22
as(I12
I7
I10
tp1659
(lp1660
I7
as(I25
I3
I25
tp1661
(lp1662
I6
aI12
aI15
aI16
as(I24
I2
I21
tp1663
(lp1664
I3
aI13
as(I6
I9
I17
tp1665
(lp1666
I14
as(I6
I8
I11
tp1667
(lp1668
I8
aI9
as(I14
I22
I2
tp1669
(lp1670
I13
as(I19
I10
I2
tp1671
(lp1672
I1
aI13
as(I17
I21
I6
tp1673
(lp1674
I4
as(I16
I9
I6
tp1675
(lp1676
I4
as(I21
I5
I12
tp1677
(lp1678
I5
aI25
as(I25
I8
I10
tp1679
(lp1680
I8
as(I17
I5
I6
tp1681
(lp1682
I4
aI25
as(I4
I24
I11
tp1683
(lp1684
I24
as(I22
I14
I13
tp1685
(lp1686
I2
aI21
as(I12
I14
I20
tp1687
(lp1688
I4
as(I2
I1
I2
tp1689
(lp1690
I1
aI3
aI13
aI19
as(I2
I1
I22
tp1691
(lp1692
I10
as(I10
I18
I12
tp1693
(lp1694
I18
as(I1
I2
I14
tp1695
(lp1696
I3
as(I17
I21
I16
tp1697
(lp1698
I23
aI25
as(I25
I3
I2
tp1699
(lp1700
I3
as(I10
I18
I9
tp1701
(lp1702
I4
aI11
aI18
as(I20
I7
I23
tp1703
(lp1704
I3
aI7
as(I20
I17
I24
tp1705
(lp1706
I6
aI14
as(I15
I7
I2
tp1707
(lp1708
I1
aI3
aI19
as(I7
I12
I10
tp1709
(lp1710
I8
aI9
as(I22
I23
I3
tp1711
(lp1712
I23
as(I4
I14
I20
tp1713
(lp1714
I18
aI23
as(I19
I20
I16
tp1715
(lp1716
I5
as(I2
I25
I13
tp1717
(lp1718
I19
as(I25
I4
I15
tp1719
(lp1720
I17
as(I9
I22
I19
tp1721
(lp1722
I13
as(I2
I16
I19
tp1723
(lp1724
I7
aI15
as(I13
I15
I19
tp1725
(lp1726
I2
aI7
aI15
as(I15
I6
I17
tp1727
(lp1728
I6
aI14
aI16
as(I22
I9
I8
tp1729
(lp1730
I10
aI11
aI12
as(I23
I22
I21
tp1731
(lp1732
I13
aI22
as(I8
I6
I8
tp1733
(lp1734
I10
aI11
aI12
as(I6
I9
I25
tp1735
(lp1736
I12
as(I4
I5
I18
tp1737
(lp1738
I12
as(I10
I9
I7
tp1739
(lp1740
I23
as(I10
I18
I20
tp1741
(lp1742
I18
as(I21
I5
I20
tp1743
(lp1744
I5
as(I5
I4
I17
tp1745
(lp1746
I14
as(I3
I12
I18
tp1747
(lp1748
I12
as(I7
I20
I23
tp1749
(lp1750
I3
aI16
aI20
as(I22
I14
I21
tp1751
(lp1752
I3
aI13
as(I6
I15
I16
tp1753
(lp1754
I5
aI17
aI25
as(I11
I18
I24
tp1755
(lp1756
I6
aI18
as(I16
I11
I5
tp1757
(lp1758
I12
aI20
as(I21
I3
I13
tp1759
(lp1760
I2
aI19
as(I21
I17
I16
tp1761
(lp1762
I17
as(I2
I24
I6
tp1763
(lp1764
I24
as(I12
I3
I20
tp1765
(lp1766
I23
as(I8
I25
I9
tp1767
(lp1768
I4
aI18
as(I4
I25
I20
tp1769
(lp1770
I5
aI18
as(I22
I12
I10
tp1771
(lp1772
I7
aI8
aI9
as(I9
I6
I9
tp1773
(lp1774
I4
aI11
aI18
as(I14
I4
I17
tp1775
(lp1776
I6
aI16
as(I17
I5
I16
tp1777
(lp1778
I5
aI23
aI25
as(I16
I2
I19
tp1779
(lp1780
I2
as(I25
I2
I7
tp1781
(lp1782
I19
as(I6
I8
I18
tp1783
(lp1784
I12
as(I21
I3
I24
tp1785
(lp1786
I14
as(I23
I14
I20
tp1787
(lp1788
I4
aI18
as(I17
I5
I25
tp1789
(lp1790
I12
as(I15
I1
I7
tp1791
(lp1792
I1
as(I15
I6
I25
tp1793
(lp1794
I6
aI12
aI16
as(I3
I25
I4
tp1795
(lp1796
I6
as(I23
I22
I13
tp1797
(lp1798
I22
as(I22
I9
I12
tp1799
(lp1800
I18
as(I16
I5
I15
tp1801
(lp1802
I1
as(I2
I1
I15
tp1803
(lp1804
I1
as(I18
I10
I11
tp1805
(lp1806
I8
aI9
aI22
as(I9
I10
I23
tp1807
(lp1808
I7
as(I17
I21
I11
tp1809
(lp1810
I22
as(I5
I16
I6
tp1811
(lp1812
I17
as(I5
I4
I25
tp1813
(lp1814
I6
as(I3
I12
I5
tp1815
(lp1816
I12
as(I9
I16
I5
tp1817
(lp1818
I16
as(I7
I6
I4
tp1819
(lp1820
I6
as(I18
I10
I7
tp1821
(lp1822
I10
as(I6
I15
I24
tp1823
(lp1824
I14
as(I7
I12
I19
tp1825
(lp1826
I15
as(I24
I4
I11
tp1827
(lp1828
I8
aI9
as(I21
I3
I21
tp1829
(lp1830
I3
aI8
aI13
aI22
as(I4
I14
I17
tp1831
(lp1832
I14
as(I2
I24
I14
tp1833
(lp1834
I4
aI17
aI24
as(I12
I3
I12
tp1835
(lp1836
I5
aI8
aI18
aI25
as(I8
I25
I1
tp1837
(lp1838
I15
as(I22
I12
I18
tp1839
(lp1840
I12
as(I7
I15
I2
tp1841
(lp1842
I1
aI19
as(I25
I2
I15
tp1843
(lp1844
I1
aI17
aI19
as(I4
I14
I4
tp1845
(lp1846
I6
aI9
aI14
aI20
as(I11
I16
I10
tp1847
(lp1848
I7
as(I16
I9
I23
tp1849
(lp1850
I7
aI20
as(I2
I16
I3
tp1851
(lp1852
I14
aI23
as(I20
I19
I3
tp1853
(lp1854
I2
as(I15
I1
I15
tp1855
(lp1856
I1
aI17
aI19
aI25
as(I23
I11
I4
tp1857
(lp1858
I9
as(I14
I12
I18
tp1859
(lp1860
I12
as(I3
I21
I14
tp1861
(lp1862
I24
as(I16
I5
I7
tp1863
(lp1864
I1
as(I13
I1
I15
tp1865
(lp1866
I1
as(I2
I1
I7
tp1867
(lp1868
I1
as(I16
I11
I18
tp1869
(lp1870
I9
as(I24
I2
I22
tp1871
(lp1872
I13
aI21
as(I17
I21
I3
tp1873
(lp1874
I2
aI21
as(I5
I21
I4
tp1875
(lp1876
I14
as(I13
I23
I13
tp1877
(lp1878
I2
aI19
aI21
aI22
as(I4
I14
I15
tp1879
(lp1880
I17
as(I9
I6
I18
tp1881
(lp1882
I12
aI20
aI24
as(I12
I14
I12
tp1883
(lp1884
I5
aI8
aI18
aI25
as(I17
I20
I16
tp1885
(lp1886
I5
aI23
as(I16
I2
I3
tp1887
(lp1888
I2
as(I11
I23
I3
tp1889
(lp1890
I23
as(I13
I15
I2
tp1891
(lp1892
I1
aI3
aI19
as(I11
I23
I9
tp1893
(lp1894
I4
aI10
as(I7
I15
I10
tp1895
(lp1896
I8
as(I12
I7
I19
tp1897
(lp1898
I7
as(I13
I8
I22
tp1899
(lp1900
I10
aI11
aI21
as(I25
I2
I23
tp1901
(lp1902
I3
as(I10
I9
I20
tp1903
(lp1904
I4
as(I19
I10
I11
tp1905
(lp1906
I9
as(I24
I1
I15
tp1907
(lp1908
I1
as(I21
I5
I7
tp1909
(lp1910
I1
as(I17
I5
I15
tp1911
(lp1912
I1
aI25
as(I22
I14
I4
tp1913
(lp1914
I14
as(I23
I13
I1
tp1915
(lp1916
I2
as(I3
I21
I22
tp1917
(lp1918
I21
as(I11
I18
I9
tp1919
(lp1920
I4
aI18
as(I13
I1
I7
tp1921
(lp1922
I1
as(I10
I18
I11
tp1923
(lp1924
I9
aI24
as(I9
I10
I7
tp1925
(lp1926
I10
as(I5
I21
I12
tp1927
(lp1928
I8
as(I2
I24
I17
tp1929
(lp1930
I6
as(I5
I4
I9
tp1931
(lp1932
I4
as(I17
I24
I16
tp1933
(lp1934
I25
as(I4
I25
I5
tp1935
(lp1936
I12
as(I22
I12
I5
tp1937
(lp1938
I12
as(I20
I7
I12
tp1939
(lp1940
I5
as(I25
I8
I25
tp1941
(lp1942
I6
aI12
aI15
aI16
as(I8
I19
I13
tp1943
(lp1944
I2
aI19
as(I15
I13
I1
tp1945
(lp1946
I2
aI7
as(I21
I17
I8
tp1947
(lp1948
I12
as(I2
I25
I2
tp1949
(lp1950
I1
aI3
aI13
aI19
as(I15
I6
I14
tp1951
(lp1952
I4
aI24
as(I24
I4
I18
tp1953
(lp1954
I9
aI20
as(I16
I2
I23
tp1955
(lp1956
I3
aI7
as(I23
I22
I18
tp1957
(lp1958
I9
as(I19
I10
I1
tp1959
(lp1960
I7
as(I6
I8
I10
tp1961
(lp1962
I8
as(I10
I9
I12
tp1963
(lp1964
I18
as(I8
I13
I21
tp1965
(lp1966
I3
aI13
aI22
as(I9
I10
I24
tp1967
(lp1968
I11
as(I17
I20
I17
tp1969
(lp1970
I6
aI14
aI15
aI16
as(I17
I5
I1
tp1971
(lp1972
I5
as(I25
I8
I19
tp1973
(lp1974
I7
as(I18
I10
I20
tp1975
(lp1976
I4
aI23
as(I7
I20
I16
tp1977
(lp1978
I5
as(I1
I15
I5
tp1979
(lp1980
I12
aI16
as(I1
I24
I25
tp1981
(lp1982
I6
as(I2
I1
I23
tp1983
(lp1984
I7
as(I23
I11
I21
tp1985
(lp1986
I8
aI22
as(I1
I2
I15
tp1987
(lp1988
I17
aI19
as(I17
I21
I19
tp1989
(lp1990
I13
as(I5
I21
I20
tp1991
(lp1992
I4
aI23
as(I22
I12
I13
tp1993
(lp1994
I21
as(I20
I7
I20
tp1995
(lp1996
I4
aI5
aI18
aI23
as(I15
I7
I5
tp1997
(lp1998
I20
as(I24
I2
I14
tp1999
(lp2000
I3
aI17
as(I14
I22
I21
tp2001
(lp2002
I13
aI22
as(I14
I12
I25
tp2003
(lp2004
I12
as(I25
I4
I12
tp2005
(lp2006
I5
aI18
as(I3
I25
I8
tp2007
(lp2008
I12
as(I1
I13
I3
tp2009
(lp2010
I21
as(I24
I2
I1
tp2011
(lp2012
I2
as(I23
I22
I10
tp2013
(lp2014
I9
aI22
as(I14
I23
I3
tp2015
(lp2016
I2
aI23
as(I8
I6
I11
tp2017
(lp2018
I9
aI24
as(I16
I5
I16
tp2019
(lp2020
I5
aI17
aI23
aI25
as(I1
I24
I17
tp2021
(lp2022
I6
aI14
as(I10
I9
I4
tp2023
(lp2024
I9
as(I21
I5
I23
tp2025
(lp2026
I16
aI20
as(I5
I16
I17
tp2027
(lp2028
I16
as(I20
I7
I4
tp2029
(lp2030
I9
as(I6
I15
I17
tp2031
(lp2032
I15
aI16
as(I11
I18
I25
tp2033
(lp2034
I12
as(I1
I2
I7
tp2035
(lp2036
I19
aI23
as(I21
I17
I19
tp2037
(lp2038
I15
as(I2
I24
I1
tp2039
(lp2040
I5
as(I12
I3
I21
tp2041
(lp2042
I3
as(I8
I25
I10
tp2043
(lp2044
I9
as(I22
I12
I21
tp2045
(lp2046
I8
as(I20
I17
I1
tp2047
(lp2048
I15
as(I6
I7
I20
tp2049
(lp2050
I23
as(I15
I13
I17
tp2051
(lp2052
I14
as(I12
I14
I4
tp2053
(lp2054
I14
as(I25
I4
I20
tp2055
(lp2056
I4
as(I16
I9
I16
tp2057
(lp2058
I5
aI17
aI23
aI25
as(I3
I25
I16
tp2059
(lp2060
I25
as(I11
I16
I14
tp2061
(lp2062
I17
as(I7
I6
I16
tp2063
(lp2064
I17
aI25
as(I3
I12
I21
tp2065
(lp2066
I8
aI22
as(I7
I20
I9
tp2067
(lp2068
I4
aI18
as(I23
I22
I2
tp2069
(lp2070
I13
as(I25
I8
I9
tp2071
(lp2072
I10
as(I6
I9
I6
tp2073
(lp2074
I4
aI17
aI24
aI25
as(I13
I1
I22
tp2075
(lp2076
I10
as(I18
I11
I22
tp2077
(lp2078
I11
as(I19
I10
I19
tp2079
(lp2080
I2
aI7
aI13
aI15
as(I9
I10
I8
tp2081
(lp2082
I10
aI21
as(I14
I12
I3
tp2083
(lp2084
I21
as(I9
I16
I10
tp2085
(lp2086
I7
as(I11
I16
I3
tp2087
(lp2088
I23
as(I6
I15
I25
tp2089
(lp2090
I12
aI15
aI16
as(I7
I12
I20
tp2091
(lp2092
I5
aI18
as(I10
I19
I13
tp2093
(lp2094
I2
aI19
as(I8
I19
I2
tp2095
(lp2096
I19
as(I1
I24
I18
tp2097
(lp2098
I24
as(I2
I25
I19
tp2099
(lp2100
I7
aI15
as(I17
I20
I24
tp2101
(lp2102
I18
as(I2
I16
I7
tp2103
(lp2104
I23
as(I14
I4
I24
tp2105
(lp2106
I6
aI11
aI18
as(I21
I17
I24
tp2107
(lp2108
I6
as(I25
I2
I16
tp2109
(lp2110
I5
aI23
as(I8
I6
I18
tp2111
(lp2112
I24
as(I19
I20
I1
tp2113
(lp2114
I5
aI7
as(I11
I16
I11
tp2115
(lp2116
I8
aI9
aI24
as(I14
I12
I16
tp2117
(lp2118
I25
as(I2
I16
I2
tp2119
(lp2120
I1
aI3
aI19
as(I1
I13
I19
tp2121
(lp2122
I2
aI13
as(I15
I1
I14
tp2123
(lp2124
I3
as(I12
I22
I18
tp2125
(lp2126
I9
aI24
as(I7
I20
I1
tp2127
(lp2128
I2
aI5
as(I22
I14
I3
tp2129
(lp2130
I14
as(I22
I9
I21
tp2131
(lp2132
I8
as(I3
I21
I13
tp2133
(lp2134
I21
aI22
as(I6
I9
I14
tp2135
(lp2136
I4
as(I14
I23
I7
tp2137
(lp2138
I23
as(I1
I13
I1
tp2139
(lp2140
I2
aI7
aI15
as(I17
I21
I2
tp2141
(lp2142
I3
aI13
as(I5
I21
I7
tp2143
(lp2144
I23
as(I5
I4
I6
tp2145
(lp2146
I4
as(I17
I24
I9
tp2147
(lp2148
I11
as(I4
I25
I14
tp2149
(lp2150
I17
aI24
as(I4
I24
I18
tp2151
(lp2152
I24
as(I9
I16
I18
tp2153
(lp2154
I12
aI20
as(I20
I7
I5
tp2155
(lp2156
I1
aI16
as(I6
I15
I1
tp2157
(lp2158
I15
as(I25
I8
I6
tp2159
(lp2160
I4
aI24
as(I10
I19
I21
tp2161
(lp2162
I13
as(I8
I19
I10
tp2163
(lp2164
I7
aI22
as(I1
I2
I23
tp2165
(lp2166
I3
as(I21
I17
I3
tp2167
(lp2168
I2
aI14
aI23
as(I12
I3
I5
tp2169
(lp2170
I1
aI16
aI20
as(I9
I22
I13
tp2171
(lp2172
I22
as(I13
I15
I1
tp2173
(lp2174
I7
aI15
as(I11
I23
I8
tp2175
(lp2176
I10
aI21
as(I7
I15
I13
tp2177
(lp2178
I2
as(I12
I7
I16
tp2179
(lp2180
I23
as(I6
I7
I4
tp2181
(lp2182
I9
aI20
as(I24
I2
I18
tp2183
(lp2184
I12
as(I19
I20
I9
tp2185
(lp2186
I4
as(I6
I8
I5
tp2187
(lp2188
I12
as(I14
I22
I24
tp2189
(lp2190
I11
aI18
as(I19
I10
I8
tp2191
(lp2192
I10
as(I23
I14
I6
tp2193
(lp2194
I4
aI17
as(I22
I14
I11
tp2195
(lp2196
I9
aI24
as(I7
I6
I15
tp2197
(lp2198
I17
aI25
as.